(lp0
(iyelp_data_provider
YelpBusiness
p1
(dp2
S'category'
p3
S'pharmacy'
p4
sS'city'
p5
VNew York
p6
sS'review_count'
p7
I2
sS'name'
p8
VDuane Reade
p9
sS'zip'
p10
V10019
p11
sS'url'
p12
Vhttp://www.yelp.com/biz/duane-reade-new-york-11
p13
sS'address1'
p14
V51 W 51St St
p15
sS'avg_rating'
p16
F5.0
sS'reviews'
p17
(lp18
(iyelp_data_provider
YelpReview
p19
(dp20
S'rating'
p21
S'5.0'
p22
sS'pub_date'
p23
cdatetime
datetime
p24
(S'\x07\xda\x07\x17\x00\x00\x00\x00\x00\x00'
p25
tp26
Rp27
sba(iyelp_data_provider
YelpReview
p28
(dp29
g21
S'5.0'
p30
sg23
g24
(S'\x07\xdb\x0c\t\x00\x00\x00\x00\x00\x00'
p31
tp32
Rp33
sbasS'longitude'
p34
F-73.979144
sS'address2'
p35
V
p36
sS'has_extra_content'
p37
I01
sS'state'
p38
VNY
p39
sS'latitude'
p40
F40.760244
sS'price_range'
p41
S'$$'
p42
sS'id'
p43
V2_5G196RSBJFG6Te_S3ruA
p44
sba.