(lp0
(iyelp_data_provider
YelpBusiness
p1
(dp2
S'category'
p3
S'pharmacy'
p4
sS'city'
p5
VNew York
p6
sS'review_count'
p7
I13
sS'name'
p8
VDuane Reade
p9
sS'zip'
p10
V10019
p11
sS'url'
p12
Vhttp://www.yelp.com/biz/duane-reade-new-york-62
p13
sS'address1'
p14
V100 W 57Th St
p15
sS'avg_rating'
p16
F3.5
sS'reviews'
p17
(lp18
(iyelp_data_provider
YelpReview
p19
(dp20
S'rating'
p21
S'3.5'
p22
sS'pub_date'
p23
cdatetime
datetime
p24
(S'\x07\xda\x02\n\x00\x00\x00\x00\x00\x00'
p25
tp26
Rp27
sba(iyelp_data_provider
YelpReview
p28
(dp29
g21
S'4.0'
p30
sg23
g24
(S'\x07\xdc\x02\x1a\x00\x00\x00\x00\x00\x00'
p31
tp32
Rp33
sba(iyelp_data_provider
YelpReview
p34
(dp35
g21
S'3.0'
p36
sg23
g24
(S'\x07\xdc\x03\x01\x00\x00\x00\x00\x00\x00'
p37
tp38
Rp39
sba(iyelp_data_provider
YelpReview
p40
(dp41
g21
S'3.0'
p42
sg23
g24
(S'\x07\xdc\x02\x1d\x00\x00\x00\x00\x00\x00'
p43
tp44
Rp45
sba(iyelp_data_provider
YelpReview
p46
(dp47
g21
S'3.0'
p48
sg23
g24
(S'\x07\xdb\x03\x02\x00\x00\x00\x00\x00\x00'
p49
tp50
Rp51
sba(iyelp_data_provider
YelpReview
p52
(dp53
g21
S'2.0'
p54
sg23
g24
(S'\x07\xd7\x06\x01\x00\x00\x00\x00\x00\x00'
p55
tp56
Rp57
sba(iyelp_data_provider
YelpReview
p58
(dp59
g21
S'3.0'
p60
sg23
g24
(S'\x07\xdc\x05\x03\x00\x00\x00\x00\x00\x00'
p61
tp62
Rp63
sba(iyelp_data_provider
YelpReview
p64
(dp65
g21
S'5.0'
p66
sg23
g24
(S'\x07\xda\x01\x11\x00\x00\x00\x00\x00\x00'
p67
tp68
Rp69
sba(iyelp_data_provider
YelpReview
p70
(dp71
g21
S'4.0'
p72
sg23
g24
(S'\x07\xda\t\x01\x00\x00\x00\x00\x00\x00'
p73
tp74
Rp75
sba(iyelp_data_provider
YelpReview
p76
(dp77
g21
S'5.0'
p78
sg23
g24
(S'\x07\xda\x0b\x1e\x00\x00\x00\x00\x00\x00'
p79
tp80
Rp81
sba(iyelp_data_provider
YelpReview
p82
(dp83
g21
S'3.0'
p84
sg23
g24
(S'\x07\xdb\x07\x05\x00\x00\x00\x00\x00\x00'
p85
tp86
Rp87
sba(iyelp_data_provider
YelpReview
p88
(dp89
g21
S'3.0'
p90
sg23
g24
(S'\x07\xd8\t\x03\x00\x00\x00\x00\x00\x00'
p91
tp92
Rp93
sba(iyelp_data_provider
YelpReview
p94
(dp95
g21
S'3.0'
p96
sg23
g24
(S'\x07\xda\x0c\x11\x00\x00\x00\x00\x00\x00'
p97
tp98
Rp99
sbasS'longitude'
p100
F-73.97739
sS'address2'
p101
V
p102
sS'has_extra_content'
p103
I01
sS'state'
p104
VNY
p105
sS'latitude'
p106
F40.764084
sS'price_range'
p107
S'$$'
p108
sS'id'
p109
VnWENsRX-IsWhjJB6bin-4A
p110
sba.