(lp0
(iyelp_data_provider
YelpBusiness
p1
(dp2
S'category'
p3
S'pharmacy'
p4
sS'city'
p5
VEnglewood
p6
sS'review_count'
p7
I2
sS'name'
p8
VBluemercury Inc
p9
sS'zip'
p10
V07631
p11
sS'url'
p12
Vhttp://www.yelp.com/biz/bluemercury-inc-englewood
p13
sS'address1'
p14
V24 S Dean St
p15
sS'avg_rating'
p16
F5.0
sS'reviews'
p17
(lp18
(iyelp_data_provider
YelpReview
p19
(dp20
S'rating'
p21
S'5.0'
p22
sS'pub_date'
p23
cdatetime
datetime
p24
(S'\x07\xdb\x06\x1c\x00\x00\x00\x00\x00\x00'
p25
tp26
Rp27
sba(iyelp_data_provider
YelpReview
p28
(dp29
g21
S'5.0'
p30
sg23
g24
(S'\x07\xda\x07\x1d\x00\x00\x00\x00\x00\x00'
p31
tp32
Rp33
sbasS'longitude'
p34
F-73.9750708
sS'address2'
p35
V
p36
sS'has_extra_content'
p37
I01
sS'state'
p38
VNJ
p39
sS'latitude'
p40
F40.8926938
sS'price_range'
p41
S'$$'
p42
sS'id'
p43
Vz0flsLhGZDmMsVlKA70phA
p44
sba.