(lp0
(iyelp_data_provider
YelpBusiness
p1
(dp2
S'category'
p3
S'pharmacy'
p4
sS'city'
p5
VNew York
p6
sS'review_count'
p7
I16
sS'name'
p8
VCVS Pharmacy
p9
sS'zip'
p10
V10036
p11
sS'url'
p12
Vhttp://www.yelp.com/biz/cvs-pharmacy-new-york-27
p13
sS'address1'
p14
V500 W 42nd St
p15
sS'avg_rating'
p16
F2.5
sS'reviews'
p17
(lp18
(iyelp_data_provider
YelpReview
p19
(dp20
S'rating'
p21
S'2.5'
p22
sS'pub_date'
p23
cdatetime
datetime
p24
(S'\x07\xdc\x02\x19\x00\x00\x00\x00\x00\x00'
p25
tp26
Rp27
sba(iyelp_data_provider
YelpReview
p28
(dp29
g21
S'3.0'
p30
sg23
g24
(S'\x07\xdc\x0b\x11\x00\x00\x00\x00\x00\x00'
p31
tp32
Rp33
sba(iyelp_data_provider
YelpReview
p34
(dp35
g21
S'2.0'
p36
sg23
g24
(S'\x07\xdc\x05\x1f\x00\x00\x00\x00\x00\x00'
p37
tp38
Rp39
sba(iyelp_data_provider
YelpReview
p40
(dp41
g21
S'1.0'
p42
sg23
g24
(S'\x07\xdc\x02\x03\x00\x00\x00\x00\x00\x00'
p43
tp44
Rp45
sba(iyelp_data_provider
YelpReview
p46
(dp47
g21
S'1.0'
p48
sg23
g24
(S'\x07\xdb\x02\x0f\x00\x00\x00\x00\x00\x00'
p49
tp50
Rp51
sba(iyelp_data_provider
YelpReview
p52
(dp53
g21
S'1.0'
p54
sg23
g24
(S'\x07\xda\n\x0b\x00\x00\x00\x00\x00\x00'
p55
tp56
Rp57
sba(iyelp_data_provider
YelpReview
p58
(dp59
g21
S'4.0'
p60
sg23
g24
(S'\x07\xdb\x06\x13\x00\x00\x00\x00\x00\x00'
p61
tp62
Rp63
sba(iyelp_data_provider
YelpReview
p64
(dp65
g21
S'1.0'
p66
sg23
g24
(S'\x07\xd8\x04\x14\x00\x00\x00\x00\x00\x00'
p67
tp68
Rp69
sba(iyelp_data_provider
YelpReview
p70
(dp71
g21
S'1.0'
p72
sg23
g24
(S'\x07\xdc\x02\x06\x00\x00\x00\x00\x00\x00'
p73
tp74
Rp75
sba(iyelp_data_provider
YelpReview
p76
(dp77
g21
S'1.0'
p78
sg23
g24
(S'\x07\xda\x0c\x1d\x00\x00\x00\x00\x00\x00'
p79
tp80
Rp81
sba(iyelp_data_provider
YelpReview
p82
(dp83
g21
S'3.0'
p84
sg23
g24
(S'\x07\xda\x02\x12\x00\x00\x00\x00\x00\x00'
p85
tp86
Rp87
sba(iyelp_data_provider
YelpReview
p88
(dp89
g21
S'1.0'
p90
sg23
g24
(S'\x07\xdb\x06\x10\x00\x00\x00\x00\x00\x00'
p91
tp92
Rp93
sba(iyelp_data_provider
YelpReview
p94
(dp95
g21
S'4.0'
p96
sg23
g24
(S'\x07\xd9\t\x17\x00\x00\x00\x00\x00\x00'
p97
tp98
Rp99
sba(iyelp_data_provider
YelpReview
p100
(dp101
g21
S'3.0'
p102
sg23
g24
(S'\x07\xdb\x01\x0c\x00\x00\x00\x00\x00\x00'
p103
tp104
Rp105
sba(iyelp_data_provider
YelpReview
p106
(dp107
g21
S'3.0'
p108
sg23
g24
(S'\x07\xdb\x01\x19\x00\x00\x00\x00\x00\x00'
p109
tp110
Rp111
sba(iyelp_data_provider
YelpReview
p112
(dp113
g21
S'3.0'
p114
sg23
g24
(S'\x07\xdc\x03\x03\x00\x00\x00\x00\x00\x00'
p115
tp116
Rp117
sbasS'longitude'
p118
F-73.9957226
sS'address2'
p119
V
p120
sS'has_extra_content'
p121
I01
sS'state'
p122
VNY
p123
sS'latitude'
p124
F40.7595951
sS'price_range'
p125
S'$$'
p126
sS'id'
p127
VYLbSoCauXsL92mh8dfE_EA
p128
sba.