(lp0
(iyelp_data_provider
YelpBusiness
p1
(dp2
S'category'
p3
S'pharmacy'
p4
sS'city'
p5
VNew York
p6
sS'review_count'
p7
I2
sS'name'
p8
VJoe's Gourmet Deli and Grocery
p9
sS'zip'
p10
V10007
p11
sS'url'
p12
Vhttp://www.yelp.com/biz/joes-gourmet-deli-and-grocery-new-york
p13
sS'address1'
p14
V104 Duane Street
p15
sS'avg_rating'
p16
F2.5
sS'reviews'
p17
(lp18
(iyelp_data_provider
YelpReview
p19
(dp20
S'rating'
p21
S'2.5'
p22
sS'pub_date'
p23
cdatetime
datetime
p24
(S'\x07\xdc\x01\x12\x00\x00\x00\x00\x00\x00'
p25
tp26
Rp27
sba(iyelp_data_provider
YelpReview
p28
(dp29
g21
S'3.0'
p30
sg23
g24
(S'\x07\xd9\x02\r\x00\x00\x00\x00\x00\x00'
p31
tp32
Rp33
sbasS'longitude'
p34
F-74.006233
sS'address2'
p35
V
p36
sS'has_extra_content'
p37
I01
sS'state'
p38
VNY
p39
sS'latitude'
p40
F40.715306
sS'price_range'
p41
S'$$'
p42
sS'id'
p43
VsKcUesnT7THs4j_UdJn3ug
p44
sba.