(lp0
VCalhoun School
p1
aVCollegiate School
p2
aVMannes College The New School for Music
p3
aVWest End Collegiate Church
p4
aVPublic School 811 M
p5
aVMetropolitan Montessori School
p6
aVBrownstone School
p7
aVPlanet Han Inc
p8
aVRodeph Sholom
p9
aVLa Petite Ecole
p10
aVPoppyseed Pre-Nursery
p11
aVMaison Sapho School of Dressmaking & Designing Inc.
p12
aVGelabert Studios
p13
aVPlay Together NYC Preschool, Upper West Side
p14
aVSincere Qigong Tui-Na Inc
p15
aVJewelry Arts Institute Inc
p16
aVLivingston School
p17
aVNy Interschool Inc
p18
aVEmpire Bartending Academy
p19
aVPublic School 148
p20
aVP S 53 Custodians Office
p21
aVThe Jewish Spiritual Leaders Institute
p22
aVFinger Painted Hands
p23
aVWest Eighty Third St Preschool
p24
aVPoppyseed Pre-Nursery
p25
aVGerman-American School
p26
aVAmerican Institute of IR
p27
aVCathedral Preparatory Seminary
p28
a.