(lp0
VSaint Thomas Choir School
p1
aVPM Associates
p2
aVGeneva School of Manhattan
p3
aVKaplan Educational Center
p4
aVBallet Arts
p5
aVEuropean School of Economics
p6
aVNew York International Ballet Competition
p7
aVBig Brothers Big Sisters
p8
aVTao Yoga & Taichi
p9
aVNew York School of the Bible
p10
aVKushner & Co
p11
aVAccessorie Circuit
p12
aVIcahn Charitable Foundation
p13
aVNew York School-Psychnlytc Psychotherapy
p14
aVGlobal Partnership Schools
p15
aVBritish Schools & Universities
p16
aVThe Voice Institute of New York | Dr. Jamie Koufman
p17
aVMotumbaxe Capoeira
p18
aVHelpargentina
p19
aVNational Center Paralegal Training
p20
aVAcademy For Continuing Education
p21
aVLyceum Kennedy French Schools
p22
aVGotham Jiu Jitsu - Personalized Self Defense Training
p23
aVLearning European Portuguese
p24
aVRiver School
p25
aVUniversity of Southern Ca
p26
aVPublic School 69
p27
a.