(lp0
VSabon
p1
aVDuane Reade
p2
aVDuane Reade
p3
aVDuane Reade Store New York
p4
aVMolton Brown
p5
aVDuane Reade
p6
aVDuanereade
p7
aVH2O Plus
p8
aVWindsor Pharmacy
p9
aVBeth Isaac, PharmD
p10
aVPamela Thorpe Office
p11
aVKite Pharma Inc
p12
aVBiotrend Corporation
p13
aVKeun Yeong Ryu, RPh
p14
aVHouman Zarnikhian, PharmD
p15
aVRichard Sottosanti, RPH
p16
aVJoseph Gennardo, RPH
p17
aVDanielle M. Tenore, RPH
p18
aVAnzhelika Babadzhanova, RPH
p19
aVVanessa Vuzzo, RPH
p20
aVAlbert Pinkhasov, RPH
p21
aVCarolyn R. Pitchford, PharmD
p22
aVRobert S. Whitehead, RPH
p23
aVPaul Crupi, RPh
p24
a.