(lp0
VApthorp Pharmacy
p1
aVBluemercury
p2
aVDuane Reade
p3
aVEssentials Plus
p4
aVCVS/pharmacy
p5
aVOrigins
p6
aVDuane Reade
p7
aVMalin & Goetz
p8
aVP Drugs
p9
aVBroadway Family Pharmacy
p10
aVR X Botox
p11
aVLisa Ligammari, RPH
p12
aVCare of Hotels
p13
aVFernando Gonzalez, RPH
p14
aVElizabeth A. Brendel, RPH
p15
aVKinnari Shah, PharmD
p16
aVAnthony Mladinov, RPH
p17
aVHarry A. Paloumbis, RPH
p18
aVJessica M. Gerardi, PharmD
p19
aVMarion Lauber, Supervising
p20
aVSovereign ATM
p21
aVAndrea N. Kirsch, BS
p22
aVMarc D. Winnegrad, RPH
p23
aVBethany A. Kivin, PharmD
p24
aVYvonne Zampitella, RPH
p25
aVDuane Reade
p26
a.