(lp0
VSabon
p1
aVDuane Reade
p2
aVDuane Reade Store New York
p3
aVDuane Reade
p4
aVDuanereade
p5
aVDuanereade
p6
aVWindsor Pharmacy
p7
aVPamela Thorpe Office
p8
aVKite Pharma Inc
p9
aVBiotrend Corporation
p10
aVWilliam Lu, Pharm
p11
aVKeun Yeong Ryu, RPh
p12
aVHouman Zarnikhian, PharmD
p13
aVRichard Sottosanti, RPH
p14
aVJoseph Gennardo, RPH
p15
aVDanielle M. Tenore, RPH
p16
aVAnzhelika Babadzhanova, RPH
p17
aVAlbert Pinkhasov, RPH
p18
aVCarolyn R. Pitchford, PharmD
p19
aVRobert S. Whitehead, RPH
p20
aVPaul Crupi, RPh
p21
a.