(dp0
S'bar'
p1
(lp2
(iyelp_data_provider
YelpBusiness
p3
(dp4
S'category'
p5
g1
sS'city'
p6
VManhattan
p7
sS'review_count'
p8
I22
sS'name'
p9
VSuite 55
p10
sS'zip'
p11
V10019
p12
sS'url'
p13
Vhttp://www.yelp.com/biz/suite-55-manhattan
p14
sS'address1'
p15
V47 W 55th St
p16
sS'avg_rating'
p17
F2.5
sS'address2'
p18
V
p19
sS'longitude'
p20
F-73.9768699
sS'reviews'
p21
(lp22
(iyelp_data_provider
YelpReview
p23
(dp24
S'rating'
p25
S'2.0'
p26
sS'pub_date'
p27
cdatetime
datetime
p28
(S'\x07\xdb\n\x19\x00\x00\x00\x00\x00\x00'
p29
tp30
Rp31
sbasS'has_extra_content'
p32
I01
sS'state'
p33
VNY
p34
sS'latitude'
p35
F40.7624936
sS'reviews_exluded'
p36
I01
sS'price_range'
p37
S'$$$$'
p38
sS'id'
p39
VjyB1fKxmsa-1-X5_7SAiCg
p40
sba(iyelp_data_provider
YelpBusiness
p41
(dp42
g5
S'bar'
p43
sg6
VNew York
p44
sg8
I40
sg9
VShoreham Hotel
p45
sg11
V10019
p46
sg13
Vhttp://www.yelp.com/biz/shoreham-hotel-new-york
p47
sg15
V33 W 55th St
p48
sg17
F3.0
sg18
g19
sg20
F-73.9764778
sg21
(lp49
(iyelp_data_provider
YelpReview
p50
(dp51
g25
S'1.0'
p52
sg27
g28
(S'\x07\xdb\n\x1e\x00\x00\x00\x00\x00\x00'
p53
tp54
Rp55
sba(iyelp_data_provider
YelpReview
p56
(dp57
g25
S'3.0'
p58
sg27
g28
(S'\x07\xdb\x07\x0e\x00\x00\x00\x00\x00\x00'
p59
tp60
Rp61
sba(iyelp_data_provider
YelpReview
p62
(dp63
g25
S'4.0'
p64
sg27
g28
(S'\x07\xdb\x03\x1f\x00\x00\x00\x00\x00\x00'
p65
tp66
Rp67
sba(iyelp_data_provider
YelpReview
p68
(dp69
g25
S'1.0'
p70
sg27
g28
(S'\x07\xdb\t\x0e\x00\x00\x00\x00\x00\x00'
p71
tp72
Rp73
sba(iyelp_data_provider
YelpReview
p74
(dp75
g25
S'4.0'
p76
sg27
g28
(S'\x07\xdb\x06\x17\x00\x00\x00\x00\x00\x00'
p77
tp78
Rp79
sba(iyelp_data_provider
YelpReview
p80
(dp81
g25
S'3.0'
p82
sg27
g28
(S'\x07\xdb\x0b\x11\x00\x00\x00\x00\x00\x00'
p83
tp84
Rp85
sba(iyelp_data_provider
YelpReview
p86
(dp87
g25
S'4.0'
p88
sg27
g28
(S'\x07\xdb\t\x08\x00\x00\x00\x00\x00\x00'
p89
tp90
Rp91
sba(iyelp_data_provider
YelpReview
p92
(dp93
g25
S'4.0'
p94
sg27
g28
(S'\x07\xdb\x08\x03\x00\x00\x00\x00\x00\x00'
p95
tp96
Rp97
sba(iyelp_data_provider
YelpReview
p98
(dp99
g25
S'1.0'
p100
sg27
g28
(S'\x07\xdb\n\x18\x00\x00\x00\x00\x00\x00'
p101
tp102
Rp103
sba(iyelp_data_provider
YelpReview
p104
(dp105
g25
S'3.0'
p106
sg27
g28
(S'\x07\xdb\x04\x1b\x00\x00\x00\x00\x00\x00'
p107
tp108
Rp109
sbasg32
I01
sg33
VNY
p110
sg35
F40.7623932
sg36
I01
sg37
S'$$$'
p111
sg39
V79FLAtjsoD50ZrVK7ssmZw
p112
sbasS'restaurant'
p113
(lp114
(iyelp_data_provider
YelpBusiness
p115
(dp116
g5
g113
sg6
VNew York
p117
sg8
I251
sg9
VEstiatorio Milos
p118
sg11
V10019
p119
sg13
Vhttp://www.yelp.com/biz/estiatorio-milos-new-york
p120
sg15
V125 W 55th St
p121
sg17
F4.0
sg18
g19
sg20
F-73.979072
sg21
(lp122
(iyelp_data_provider
YelpReview
p123
(dp124
g25
S'5.0'
p125
sg27
g28
(S'\x07\xdb\n\r\x00\x00\x00\x00\x00\x00'
p126
tp127
Rp128
sba(iyelp_data_provider
YelpReview
p129
(dp130
g25
S'4.0'
p131
sg27
g28
(S'\x07\xdb\x0b\x16\x00\x00\x00\x00\x00\x00'
p132
tp133
Rp134
sba(iyelp_data_provider
YelpReview
p135
(dp136
g25
S'3.0'
p137
sg27
g28
(S'\x07\xdb\t\x18\x00\x00\x00\x00\x00\x00'
p138
tp139
Rp140
sba(iyelp_data_provider
YelpReview
p141
(dp142
g25
S'5.0'
p143
sg27
g28
(S'\x07\xdb\x0b\x17\x00\x00\x00\x00\x00\x00'
p144
tp145
Rp146
sba(iyelp_data_provider
YelpReview
p147
(dp148
g25
S'3.0'
p149
sg27
g28
(S'\x07\xdb\x07\r\x00\x00\x00\x00\x00\x00'
p150
tp151
Rp152
sba(iyelp_data_provider
YelpReview
p153
(dp154
g25
S'5.0'
p155
sg27
g28
(S'\x07\xdb\x07\x0f\x00\x00\x00\x00\x00\x00'
p156
tp157
Rp158
sba(iyelp_data_provider
YelpReview
p159
(dp160
g25
S'5.0'
p161
sg27
g28
(S'\x07\xdb\n\x0f\x00\x00\x00\x00\x00\x00'
p162
tp163
Rp164
sba(iyelp_data_provider
YelpReview
p165
(dp166
g25
S'2.0'
p167
sg27
g28
(S'\x07\xdb\x0b\x0c\x00\x00\x00\x00\x00\x00'
p168
tp169
Rp170
sba(iyelp_data_provider
YelpReview
p171
(dp172
g25
S'4.0'
p173
sg27
g28
(S'\x07\xdb\x06\x16\x00\x00\x00\x00\x00\x00'
p174
tp175
Rp176
sba(iyelp_data_provider
YelpReview
p177
(dp178
g25
S'5.0'
p179
sg27
g28
(S'\x07\xdb\x07\x11\x00\x00\x00\x00\x00\x00'
p180
tp181
Rp182
sba(iyelp_data_provider
YelpReview
p183
(dp184
g25
S'4.0'
p185
sg27
g28
(S'\x07\xdb\x06\x0e\x00\x00\x00\x00\x00\x00'
p186
tp187
Rp188
sba(iyelp_data_provider
YelpReview
p189
(dp190
g25
S'5.0'
p191
sg27
g28
(S'\x07\xdb\x0b\x1c\x00\x00\x00\x00\x00\x00'
p192
tp193
Rp194
sba(iyelp_data_provider
YelpReview
p195
(dp196
g25
S'4.0'
p197
sg27
g28
(S'\x07\xdb\x06\x0e\x00\x00\x00\x00\x00\x00'
p198
tp199
Rp200
sba(iyelp_data_provider
YelpReview
p201
(dp202
g25
S'5.0'
p203
sg27
g28
(S'\x07\xdb\x03\x1f\x00\x00\x00\x00\x00\x00'
p204
tp205
Rp206
sba(iyelp_data_provider
YelpReview
p207
(dp208
g25
S'4.0'
p209
sg27
g28
(S'\x07\xdb\x03\x0b\x00\x00\x00\x00\x00\x00'
p210
tp211
Rp212
sba(iyelp_data_provider
YelpReview
p213
(dp214
g25
S'4.0'
p215
sg27
g28
(S'\x07\xdb\x05\x16\x00\x00\x00\x00\x00\x00'
p216
tp217
Rp218
sba(iyelp_data_provider
YelpReview
p219
(dp220
g25
S'4.0'
p221
sg27
g28
(S'\x07\xdb\x03\x07\x00\x00\x00\x00\x00\x00'
p222
tp223
Rp224
sba(iyelp_data_provider
YelpReview
p225
(dp226
g25
S'3.0'
p227
sg27
g28
(S'\x07\xdb\x02\x15\x00\x00\x00\x00\x00\x00'
p228
tp229
Rp230
sba(iyelp_data_provider
YelpReview
p231
(dp232
g25
S'5.0'
p233
sg27
g28
(S'\x07\xdb\x04\x12\x00\x00\x00\x00\x00\x00'
p234
tp235
Rp236
sba(iyelp_data_provider
YelpReview
p237
(dp238
g25
S'4.0'
p239
sg27
g28
(S'\x07\xdb\x06\x10\x00\x00\x00\x00\x00\x00'
p240
tp241
Rp242
sba(iyelp_data_provider
YelpReview
p243
(dp244
g25
S'4.0'
p245
sg27
g28
(S'\x07\xdb\x01\x0c\x00\x00\x00\x00\x00\x00'
p246
tp247
Rp248
sba(iyelp_data_provider
YelpReview
p249
(dp250
g25
S'5.0'
p251
sg27
g28
(S'\x07\xdb\x03\x18\x00\x00\x00\x00\x00\x00'
p252
tp253
Rp254
sba(iyelp_data_provider
YelpReview
p255
(dp256
g25
S'4.0'
p257
sg27
g28
(S'\x07\xdb\x01\x02\x00\x00\x00\x00\x00\x00'
p258
tp259
Rp260
sba(iyelp_data_provider
YelpReview
p261
(dp262
g25
S'4.0'
p263
sg27
g28
(S'\x07\xdb\t\x13\x00\x00\x00\x00\x00\x00'
p264
tp265
Rp266
sba(iyelp_data_provider
YelpReview
p267
(dp268
g25
S'5.0'
p269
sg27
g28
(S'\x07\xdb\x0b\x01\x00\x00\x00\x00\x00\x00'
p270
tp271
Rp272
sba(iyelp_data_provider
YelpReview
p273
(dp274
g25
S'4.0'
p275
sg27
g28
(S'\x07\xdb\x06\x10\x00\x00\x00\x00\x00\x00'
p276
tp277
Rp278
sba(iyelp_data_provider
YelpReview
p279
(dp280
g25
S'5.0'
p281
sg27
g28
(S'\x07\xdb\x01\x14\x00\x00\x00\x00\x00\x00'
p282
tp283
Rp284
sba(iyelp_data_provider
YelpReview
p285
(dp286
g25
S'4.0'
p287
sg27
g28
(S'\x07\xdb\x08\x0c\x00\x00\x00\x00\x00\x00'
p288
tp289
Rp290
sba(iyelp_data_provider
YelpReview
p291
(dp292
g25
S'4.0'
p293
sg27
g28
(S'\x07\xdb\t\x01\x00\x00\x00\x00\x00\x00'
p294
tp295
Rp296
sba(iyelp_data_provider
YelpReview
p297
(dp298
g25
S'4.0'
p299
sg27
g28
(S'\x07\xdb\t\x1c\x00\x00\x00\x00\x00\x00'
p300
tp301
Rp302
sba(iyelp_data_provider
YelpReview
p303
(dp304
g25
S'5.0'
p305
sg27
g28
(S'\x07\xdb\x07\x08\x00\x00\x00\x00\x00\x00'
p306
tp307
Rp308
sba(iyelp_data_provider
YelpReview
p309
(dp310
g25
S'4.0'
p311
sg27
g28
(S'\x07\xdb\t\x14\x00\x00\x00\x00\x00\x00'
p312
tp313
Rp314
sba(iyelp_data_provider
YelpReview
p315
(dp316
g25
S'5.0'
p317
sg27
g28
(S'\x07\xdb\x0b\x01\x00\x00\x00\x00\x00\x00'
p318
tp319
Rp320
sba(iyelp_data_provider
YelpReview
p321
(dp322
g25
S'4.0'
p323
sg27
g28
(S'\x07\xdb\x05\x1e\x00\x00\x00\x00\x00\x00'
p324
tp325
Rp326
sba(iyelp_data_provider
YelpReview
p327
(dp328
g25
S'5.0'
p329
sg27
g28
(S'\x07\xdb\x07\x0c\x00\x00\x00\x00\x00\x00'
p330
tp331
Rp332
sba(iyelp_data_provider
YelpReview
p333
(dp334
g25
S'5.0'
p335
sg27
g28
(S'\x07\xdb\n\t\x00\x00\x00\x00\x00\x00'
p336
tp337
Rp338
sba(iyelp_data_provider
YelpReview
p339
(dp340
g25
S'5.0'
p341
sg27
g28
(S'\x07\xdb\x08\x14\x00\x00\x00\x00\x00\x00'
p342
tp343
Rp344
sba(iyelp_data_provider
YelpReview
p345
(dp346
g25
S'4.0'
p347
sg27
g28
(S'\x07\xdb\x07\x1c\x00\x00\x00\x00\x00\x00'
p348
tp349
Rp350
sba(iyelp_data_provider
YelpReview
p351
(dp352
g25
S'5.0'
p353
sg27
g28
(S'\x07\xdb\t\x01\x00\x00\x00\x00\x00\x00'
p354
tp355
Rp356
sba(iyelp_data_provider
YelpReview
p357
(dp358
g25
S'1.0'
p359
sg27
g28
(S'\x07\xdb\x08\x18\x00\x00\x00\x00\x00\x00'
p360
tp361
Rp362
sba(iyelp_data_provider
YelpReview
p363
(dp364
g25
S'5.0'
p365
sg27
g28
(S'\x07\xdb\x03\x1d\x00\x00\x00\x00\x00\x00'
p366
tp367
Rp368
sba(iyelp_data_provider
YelpReview
p369
(dp370
g25
S'4.0'
p371
sg27
g28
(S'\x07\xdb\x05\x01\x00\x00\x00\x00\x00\x00'
p372
tp373
Rp374
sba(iyelp_data_provider
YelpReview
p375
(dp376
g25
S'4.0'
p377
sg27
g28
(S'\x07\xdb\n\x07\x00\x00\x00\x00\x00\x00'
p378
tp379
Rp380
sba(iyelp_data_provider
YelpReview
p381
(dp382
g25
S'4.0'
p383
sg27
g28
(S'\x07\xdb\x06\x0f\x00\x00\x00\x00\x00\x00'
p384
tp385
Rp386
sba(iyelp_data_provider
YelpReview
p387
(dp388
g25
S'5.0'
p389
sg27
g28
(S'\x07\xdb\x04\x1a\x00\x00\x00\x00\x00\x00'
p390
tp391
Rp392
sba(iyelp_data_provider
YelpReview
p393
(dp394
g25
S'4.0'
p395
sg27
g28
(S'\x07\xdb\x05\x1e\x00\x00\x00\x00\x00\x00'
p396
tp397
Rp398
sba(iyelp_data_provider
YelpReview
p399
(dp400
g25
S'4.0'
p401
sg27
g28
(S'\x07\xdb\x04\x03\x00\x00\x00\x00\x00\x00'
p402
tp403
Rp404
sba(iyelp_data_provider
YelpReview
p405
(dp406
g25
S'4.0'
p407
sg27
g28
(S'\x07\xdb\x03\r\x00\x00\x00\x00\x00\x00'
p408
tp409
Rp410
sba(iyelp_data_provider
YelpReview
p411
(dp412
g25
S'5.0'
p413
sg27
g28
(S'\x07\xdb\t\r\x00\x00\x00\x00\x00\x00'
p414
tp415
Rp416
sba(iyelp_data_provider
YelpReview
p417
(dp418
g25
S'2.0'
p419
sg27
g28
(S'\x07\xdb\x07\x1c\x00\x00\x00\x00\x00\x00'
p420
tp421
Rp422
sba(iyelp_data_provider
YelpReview
p423
(dp424
g25
S'2.0'
p425
sg27
g28
(S'\x07\xdb\n\x1f\x00\x00\x00\x00\x00\x00'
p426
tp427
Rp428
sba(iyelp_data_provider
YelpReview
p429
(dp430
g25
S'4.0'
p431
sg27
g28
(S'\x07\xdb\x07\r\x00\x00\x00\x00\x00\x00'
p432
tp433
Rp434
sba(iyelp_data_provider
YelpReview
p435
(dp436
g25
S'5.0'
p437
sg27
g28
(S'\x07\xdb\x0c\x06\x00\x00\x00\x00\x00\x00'
p438
tp439
Rp440
sba(iyelp_data_provider
YelpReview
p441
(dp442
g25
S'1.0'
p443
sg27
g28
(S'\x07\xdb\x05\n\x00\x00\x00\x00\x00\x00'
p444
tp445
Rp446
sba(iyelp_data_provider
YelpReview
p447
(dp448
g25
S'4.0'
p449
sg27
g28
(S'\x07\xdb\t\x1b\x00\x00\x00\x00\x00\x00'
p450
tp451
Rp452
sba(iyelp_data_provider
YelpReview
p453
(dp454
g25
S'5.0'
p455
sg27
g28
(S'\x07\xdb\x07\x15\x00\x00\x00\x00\x00\x00'
p456
tp457
Rp458
sba(iyelp_data_provider
YelpReview
p459
(dp460
g25
S'5.0'
p461
sg27
g28
(S'\x07\xdb\x07\x10\x00\x00\x00\x00\x00\x00'
p462
tp463
Rp464
sba(iyelp_data_provider
YelpReview
p465
(dp466
g25
S'5.0'
p467
sg27
g28
(S'\x07\xdb\x07\x1b\x00\x00\x00\x00\x00\x00'
p468
tp469
Rp470
sba(iyelp_data_provider
YelpReview
p471
(dp472
g25
S'5.0'
p473
sg27
g28
(S'\x07\xdb\x07\x1a\x00\x00\x00\x00\x00\x00'
p474
tp475
Rp476
sba(iyelp_data_provider
YelpReview
p477
(dp478
g25
S'2.0'
p479
sg27
g28
(S'\x07\xdb\x06\x12\x00\x00\x00\x00\x00\x00'
p480
tp481
Rp482
sba(iyelp_data_provider
YelpReview
p483
(dp484
g25
S'5.0'
p485
sg27
g28
(S'\x07\xdb\x06\x08\x00\x00\x00\x00\x00\x00'
p486
tp487
Rp488
sba(iyelp_data_provider
YelpReview
p489
(dp490
g25
S'4.0'
p491
sg27
g28
(S'\x07\xdb\n\x10\x00\x00\x00\x00\x00\x00'
p492
tp493
Rp494
sba(iyelp_data_provider
YelpReview
p495
(dp496
g25
S'3.0'
p497
sg27
g28
(S'\x07\xdb\x08\x0e\x00\x00\x00\x00\x00\x00'
p498
tp499
Rp500
sbasg32
I01
sg33
VNY
p501
sg35
F40.763489
sg36
I01
sg37
S'$$$$'
p502
sg39
VmhhTORjUdXj-UIDjyGmhBg
p503
sba(iyelp_data_provider
YelpBusiness
p504
(dp505
g5
S'restaurant'
p506
sg6
VNew York
p507
sg8
I375
sg9
VRue 57
p508
sg11
V10019
p509
sg13
Vhttp://www.yelp.com/biz/rue-57-new-york
p510
sg15
V60 W 57th St
p511
sg17
F3.5
sg18
g19
sg20
F-73.9770387
sg21
(lp512
(iyelp_data_provider
YelpReview
p513
(dp514
g25
S'5.0'
p515
sg27
g28
(S'\x07\xdb\x0b\x1c\x00\x00\x00\x00\x00\x00'
p516
tp517
Rp518
sba(iyelp_data_provider
YelpReview
p519
(dp520
g25
S'3.0'
p521
sg27
g28
(S'\x07\xdb\x08\x13\x00\x00\x00\x00\x00\x00'
p522
tp523
Rp524
sba(iyelp_data_provider
YelpReview
p525
(dp526
g25
S'4.0'
p527
sg27
g28
(S'\x07\xdb\n\x18\x00\x00\x00\x00\x00\x00'
p528
tp529
Rp530
sba(iyelp_data_provider
YelpReview
p531
(dp532
g25
S'2.0'
p533
sg27
g28
(S'\x07\xdb\x0b\x1a\x00\x00\x00\x00\x00\x00'
p534
tp535
Rp536
sba(iyelp_data_provider
YelpReview
p537
(dp538
g25
S'3.0'
p539
sg27
g28
(S'\x07\xdb\x07\r\x00\x00\x00\x00\x00\x00'
p540
tp541
Rp542
sba(iyelp_data_provider
YelpReview
p543
(dp544
g25
S'4.0'
p545
sg27
g28
(S'\x07\xdb\t\x16\x00\x00\x00\x00\x00\x00'
p546
tp547
Rp548
sba(iyelp_data_provider
YelpReview
p549
(dp550
g25
S'3.0'
p551
sg27
g28
(S'\x07\xdb\x07\x15\x00\x00\x00\x00\x00\x00'
p552
tp553
Rp554
sba(iyelp_data_provider
YelpReview
p555
(dp556
g25
S'3.0'
p557
sg27
g28
(S'\x07\xdb\t\x04\x00\x00\x00\x00\x00\x00'
p558
tp559
Rp560
sba(iyelp_data_provider
YelpReview
p561
(dp562
g25
S'4.0'
p563
sg27
g28
(S'\x07\xdb\x04\x1d\x00\x00\x00\x00\x00\x00'
p564
tp565
Rp566
sba(iyelp_data_provider
YelpReview
p567
(dp568
g25
S'2.0'
p569
sg27
g28
(S'\x07\xdb\n\x06\x00\x00\x00\x00\x00\x00'
p570
tp571
Rp572
sba(iyelp_data_provider
YelpReview
p573
(dp574
g25
S'3.0'
p575
sg27
g28
(S'\x07\xdb\t\x06\x00\x00\x00\x00\x00\x00'
p576
tp577
Rp578
sba(iyelp_data_provider
YelpReview
p579
(dp580
g25
S'5.0'
p581
sg27
g28
(S'\x07\xdb\x07\x0b\x00\x00\x00\x00\x00\x00'
p582
tp583
Rp584
sba(iyelp_data_provider
YelpReview
p585
(dp586
g25
S'4.0'
p587
sg27
g28
(S'\x07\xdb\x08\x0f\x00\x00\x00\x00\x00\x00'
p588
tp589
Rp590
sba(iyelp_data_provider
YelpReview
p591
(dp592
g25
S'1.0'
p593
sg27
g28
(S'\x07\xdb\x02\x18\x00\x00\x00\x00\x00\x00'
p594
tp595
Rp596
sba(iyelp_data_provider
YelpReview
p597
(dp598
g25
S'4.0'
p599
sg27
g28
(S'\x07\xdb\t\x16\x00\x00\x00\x00\x00\x00'
p600
tp601
Rp602
sba(iyelp_data_provider
YelpReview
p603
(dp604
g25
S'3.0'
p605
sg27
g28
(S'\x07\xdb\x07\r\x00\x00\x00\x00\x00\x00'
p606
tp607
Rp608
sba(iyelp_data_provider
YelpReview
p609
(dp610
g25
S'3.0'
p611
sg27
g28
(S'\x07\xdb\x03\x06\x00\x00\x00\x00\x00\x00'
p612
tp613
Rp614
sba(iyelp_data_provider
YelpReview
p615
(dp616
g25
S'4.0'
p617
sg27
g28
(S'\x07\xdb\t\x01\x00\x00\x00\x00\x00\x00'
p618
tp619
Rp620
sba(iyelp_data_provider
YelpReview
p621
(dp622
g25
S'3.0'
p623
sg27
g28
(S'\x07\xdb\x08\x06\x00\x00\x00\x00\x00\x00'
p624
tp625
Rp626
sba(iyelp_data_provider
YelpReview
p627
(dp628
g25
S'4.0'
p629
sg27
g28
(S'\x07\xdb\x0b\r\x00\x00\x00\x00\x00\x00'
p630
tp631
Rp632
sba(iyelp_data_provider
YelpReview
p633
(dp634
g25
S'4.0'
p635
sg27
g28
(S'\x07\xdb\x03\x18\x00\x00\x00\x00\x00\x00'
p636
tp637
Rp638
sba(iyelp_data_provider
YelpReview
p639
(dp640
g25
S'5.0'
p641
sg27
g28
(S'\x07\xdb\x04\x0c\x00\x00\x00\x00\x00\x00'
p642
tp643
Rp644
sba(iyelp_data_provider
YelpReview
p645
(dp646
g25
S'2.0'
p647
sg27
g28
(S'\x07\xdb\x05\x0f\x00\x00\x00\x00\x00\x00'
p648
tp649
Rp650
sba(iyelp_data_provider
YelpReview
p651
(dp652
g25
S'4.0'
p653
sg27
g28
(S'\x07\xdb\x03\t\x00\x00\x00\x00\x00\x00'
p654
tp655
Rp656
sba(iyelp_data_provider
YelpReview
p657
(dp658
g25
S'1.0'
p659
sg27
g28
(S'\x07\xdb\x03\x02\x00\x00\x00\x00\x00\x00'
p660
tp661
Rp662
sba(iyelp_data_provider
YelpReview
p663
(dp664
g25
S'5.0'
p665
sg27
g28
(S'\x07\xdb\x02\x16\x00\x00\x00\x00\x00\x00'
p666
tp667
Rp668
sba(iyelp_data_provider
YelpReview
p669
(dp670
g25
S'4.0'
p671
sg27
g28
(S'\x07\xdb\x01\x1a\x00\x00\x00\x00\x00\x00'
p672
tp673
Rp674
sba(iyelp_data_provider
YelpReview
p675
(dp676
g25
S'5.0'
p677
sg27
g28
(S'\x07\xdb\x04\x15\x00\x00\x00\x00\x00\x00'
p678
tp679
Rp680
sba(iyelp_data_provider
YelpReview
p681
(dp682
g25
S'1.0'
p683
sg27
g28
(S'\x07\xdb\x05\x10\x00\x00\x00\x00\x00\x00'
p684
tp685
Rp686
sba(iyelp_data_provider
YelpReview
p687
(dp688
g25
S'4.0'
p689
sg27
g28
(S'\x07\xdb\x02\t\x00\x00\x00\x00\x00\x00'
p690
tp691
Rp692
sba(iyelp_data_provider
YelpReview
p693
(dp694
g25
S'4.0'
p695
sg27
g28
(S'\x07\xdb\x05\x07\x00\x00\x00\x00\x00\x00'
p696
tp697
Rp698
sba(iyelp_data_provider
YelpReview
p699
(dp700
g25
S'3.0'
p701
sg27
g28
(S'\x07\xdb\x0c\t\x00\x00\x00\x00\x00\x00'
p702
tp703
Rp704
sba(iyelp_data_provider
YelpReview
p705
(dp706
g25
S'4.0'
p707
sg27
g28
(S'\x07\xdb\t\x13\x00\x00\x00\x00\x00\x00'
p708
tp709
Rp710
sba(iyelp_data_provider
YelpReview
p711
(dp712
g25
S'2.0'
p713
sg27
g28
(S'\x07\xdb\x01\x05\x00\x00\x00\x00\x00\x00'
p714
tp715
Rp716
sba(iyelp_data_provider
YelpReview
p717
(dp718
g25
S'2.0'
p719
sg27
g28
(S'\x07\xdb\x06\x05\x00\x00\x00\x00\x00\x00'
p720
tp721
Rp722
sba(iyelp_data_provider
YelpReview
p723
(dp724
g25
S'3.0'
p725
sg27
g28
(S'\x07\xdb\t\t\x00\x00\x00\x00\x00\x00'
p726
tp727
Rp728
sba(iyelp_data_provider
YelpReview
p729
(dp730
g25
S'2.0'
p731
sg27
g28
(S'\x07\xdb\x0b\x07\x00\x00\x00\x00\x00\x00'
p732
tp733
Rp734
sba(iyelp_data_provider
YelpReview
p735
(dp736
g25
S'2.0'
p737
sg27
g28
(S'\x07\xdb\x07\x04\x00\x00\x00\x00\x00\x00'
p738
tp739
Rp740
sba(iyelp_data_provider
YelpReview
p741
(dp742
g25
S'3.0'
p743
sg27
g28
(S'\x07\xdb\x04\x02\x00\x00\x00\x00\x00\x00'
p744
tp745
Rp746
sba(iyelp_data_provider
YelpReview
p747
(dp748
g25
S'4.0'
p749
sg27
g28
(S'\x07\xdb\x0c\x08\x00\x00\x00\x00\x00\x00'
p750
tp751
Rp752
sba(iyelp_data_provider
YelpReview
p753
(dp754
g25
S'3.0'
p755
sg27
g28
(S'\x07\xdb\x02\x02\x00\x00\x00\x00\x00\x00'
p756
tp757
Rp758
sba(iyelp_data_provider
YelpReview
p759
(dp760
g25
S'4.0'
p761
sg27
g28
(S'\x07\xdb\n\x1f\x00\x00\x00\x00\x00\x00'
p762
tp763
Rp764
sba(iyelp_data_provider
YelpReview
p765
(dp766
g25
S'5.0'
p767
sg27
g28
(S'\x07\xdb\x08\x0e\x00\x00\x00\x00\x00\x00'
p768
tp769
Rp770
sba(iyelp_data_provider
YelpReview
p771
(dp772
g25
S'4.0'
p773
sg27
g28
(S'\x07\xdb\x01\x0f\x00\x00\x00\x00\x00\x00'
p774
tp775
Rp776
sba(iyelp_data_provider
YelpReview
p777
(dp778
g25
S'3.0'
p779
sg27
g28
(S'\x07\xdb\x0b\x06\x00\x00\x00\x00\x00\x00'
p780
tp781
Rp782
sba(iyelp_data_provider
YelpReview
p783
(dp784
g25
S'3.0'
p785
sg27
g28
(S'\x07\xdb\x07\x1d\x00\x00\x00\x00\x00\x00'
p786
tp787
Rp788
sba(iyelp_data_provider
YelpReview
p789
(dp790
g25
S'4.0'
p791
sg27
g28
(S'\x07\xdb\x0b\x10\x00\x00\x00\x00\x00\x00'
p792
tp793
Rp794
sba(iyelp_data_provider
YelpReview
p795
(dp796
g25
S'4.0'
p797
sg27
g28
(S'\x07\xdb\t\x10\x00\x00\x00\x00\x00\x00'
p798
tp799
Rp800
sba(iyelp_data_provider
YelpReview
p801
(dp802
g25
S'4.0'
p803
sg27
g28
(S'\x07\xdb\x04\x17\x00\x00\x00\x00\x00\x00'
p804
tp805
Rp806
sba(iyelp_data_provider
YelpReview
p807
(dp808
g25
S'4.0'
p809
sg27
g28
(S'\x07\xdb\x06\x1d\x00\x00\x00\x00\x00\x00'
p810
tp811
Rp812
sba(iyelp_data_provider
YelpReview
p813
(dp814
g25
S'5.0'
p815
sg27
g28
(S'\x07\xdb\x0b\x12\x00\x00\x00\x00\x00\x00'
p816
tp817
Rp818
sba(iyelp_data_provider
YelpReview
p819
(dp820
g25
S'4.0'
p821
sg27
g28
(S'\x07\xdb\x07\x14\x00\x00\x00\x00\x00\x00'
p822
tp823
Rp824
sba(iyelp_data_provider
YelpReview
p825
(dp826
g25
S'5.0'
p827
sg27
g28
(S'\x07\xdb\x08\x12\x00\x00\x00\x00\x00\x00'
p828
tp829
Rp830
sba(iyelp_data_provider
YelpReview
p831
(dp832
g25
S'3.0'
p833
sg27
g28
(S'\x07\xdb\x06\x03\x00\x00\x00\x00\x00\x00'
p834
tp835
Rp836
sba(iyelp_data_provider
YelpReview
p837
(dp838
g25
S'4.0'
p839
sg27
g28
(S'\x07\xdb\x08\x1d\x00\x00\x00\x00\x00\x00'
p840
tp841
Rp842
sba(iyelp_data_provider
YelpReview
p843
(dp844
g25
S'4.0'
p845
sg27
g28
(S'\x07\xdb\n\x1a\x00\x00\x00\x00\x00\x00'
p846
tp847
Rp848
sba(iyelp_data_provider
YelpReview
p849
(dp850
g25
S'4.0'
p851
sg27
g28
(S'\x07\xdb\x08\x18\x00\x00\x00\x00\x00\x00'
p852
tp853
Rp854
sba(iyelp_data_provider
YelpReview
p855
(dp856
g25
S'4.0'
p857
sg27
g28
(S'\x07\xdb\x06\x19\x00\x00\x00\x00\x00\x00'
p858
tp859
Rp860
sba(iyelp_data_provider
YelpReview
p861
(dp862
g25
S'3.0'
p863
sg27
g28
(S'\x07\xdb\x05\x0f\x00\x00\x00\x00\x00\x00'
p864
tp865
Rp866
sba(iyelp_data_provider
YelpReview
p867
(dp868
g25
S'2.0'
p869
sg27
g28
(S'\x07\xdb\x04\n\x00\x00\x00\x00\x00\x00'
p870
tp871
Rp872
sba(iyelp_data_provider
YelpReview
p873
(dp874
g25
S'4.0'
p875
sg27
g28
(S'\x07\xdb\x05\x0b\x00\x00\x00\x00\x00\x00'
p876
tp877
Rp878
sba(iyelp_data_provider
YelpReview
p879
(dp880
g25
S'2.0'
p881
sg27
g28
(S'\x07\xdb\n\x08\x00\x00\x00\x00\x00\x00'
p882
tp883
Rp884
sba(iyelp_data_provider
YelpReview
p885
(dp886
g25
S'4.0'
p887
sg27
g28
(S'\x07\xdb\x06\x05\x00\x00\x00\x00\x00\x00'
p888
tp889
Rp890
sba(iyelp_data_provider
YelpReview
p891
(dp892
g25
S'3.0'
p893
sg27
g28
(S'\x07\xdb\x04\x1c\x00\x00\x00\x00\x00\x00'
p894
tp895
Rp896
sba(iyelp_data_provider
YelpReview
p897
(dp898
g25
S'3.0'
p899
sg27
g28
(S'\x07\xdb\x07\x06\x00\x00\x00\x00\x00\x00'
p900
tp901
Rp902
sba(iyelp_data_provider
YelpReview
p903
(dp904
g25
S'3.0'
p905
sg27
g28
(S'\x07\xdb\x08\r\x00\x00\x00\x00\x00\x00'
p906
tp907
Rp908
sba(iyelp_data_provider
YelpReview
p909
(dp910
g25
S'2.0'
p911
sg27
g28
(S'\x07\xdb\x07\x0f\x00\x00\x00\x00\x00\x00'
p912
tp913
Rp914
sba(iyelp_data_provider
YelpReview
p915
(dp916
g25
S'4.0'
p917
sg27
g28
(S'\x07\xdb\x0b\x07\x00\x00\x00\x00\x00\x00'
p918
tp919
Rp920
sba(iyelp_data_provider
YelpReview
p921
(dp922
g25
S'4.0'
p923
sg27
g28
(S'\x07\xdb\x08\x1f\x00\x00\x00\x00\x00\x00'
p924
tp925
Rp926
sba(iyelp_data_provider
YelpReview
p927
(dp928
g25
S'4.0'
p929
sg27
g28
(S'\x07\xdb\t\x18\x00\x00\x00\x00\x00\x00'
p930
tp931
Rp932
sba(iyelp_data_provider
YelpReview
p933
(dp934
g25
S'3.0'
p935
sg27
g28
(S'\x07\xdb\x02\x19\x00\x00\x00\x00\x00\x00'
p936
tp937
Rp938
sba(iyelp_data_provider
YelpReview
p939
(dp940
g25
S'3.0'
p941
sg27
g28
(S'\x07\xdb\x01\x04\x00\x00\x00\x00\x00\x00'
p942
tp943
Rp944
sba(iyelp_data_provider
YelpReview
p945
(dp946
g25
S'4.0'
p947
sg27
g28
(S'\x07\xdb\x07\x15\x00\x00\x00\x00\x00\x00'
p948
tp949
Rp950
sba(iyelp_data_provider
YelpReview
p951
(dp952
g25
S'4.0'
p953
sg27
g28
(S'\x07\xdb\x07\x11\x00\x00\x00\x00\x00\x00'
p954
tp955
Rp956
sba(iyelp_data_provider
YelpReview
p957
(dp958
g25
S'5.0'
p959
sg27
g28
(S'\x07\xdb\x06\x19\x00\x00\x00\x00\x00\x00'
p960
tp961
Rp962
sba(iyelp_data_provider
YelpReview
p963
(dp964
g25
S'4.0'
p965
sg27
g28
(S'\x07\xdb\x08\x01\x00\x00\x00\x00\x00\x00'
p966
tp967
Rp968
sba(iyelp_data_provider
YelpReview
p969
(dp970
g25
S'4.0'
p971
sg27
g28
(S'\x07\xdb\x05\x0e\x00\x00\x00\x00\x00\x00'
p972
tp973
Rp974
sba(iyelp_data_provider
YelpReview
p975
(dp976
g25
S'5.0'
p977
sg27
g28
(S'\x07\xdb\x01\x07\x00\x00\x00\x00\x00\x00'
p978
tp979
Rp980
sba(iyelp_data_provider
YelpReview
p981
(dp982
g25
S'5.0'
p983
sg27
g28
(S'\x07\xdb\x06\t\x00\x00\x00\x00\x00\x00'
p984
tp985
Rp986
sba(iyelp_data_provider
YelpReview
p987
(dp988
g25
S'4.0'
p989
sg27
g28
(S'\x07\xdb\x04\x0e\x00\x00\x00\x00\x00\x00'
p990
tp991
Rp992
sba(iyelp_data_provider
YelpReview
p993
(dp994
g25
S'3.0'
p995
sg27
g28
(S'\x07\xdb\n\n\x00\x00\x00\x00\x00\x00'
p996
tp997
Rp998
sba(iyelp_data_provider
YelpReview
p999
(dp1000
g25
S'4.0'
p1001
sg27
g28
(S'\x07\xdb\x05\x0c\x00\x00\x00\x00\x00\x00'
p1002
tp1003
Rp1004
sba(iyelp_data_provider
YelpReview
p1005
(dp1006
g25
S'1.0'
p1007
sg27
g28
(S'\x07\xdb\x01\x08\x00\x00\x00\x00\x00\x00'
p1008
tp1009
Rp1010
sba(iyelp_data_provider
YelpReview
p1011
(dp1012
g25
S'2.0'
p1013
sg27
g28
(S'\x07\xdb\x04\n\x00\x00\x00\x00\x00\x00'
p1014
tp1015
Rp1016
sba(iyelp_data_provider
YelpReview
p1017
(dp1018
g25
S'3.0'
p1019
sg27
g28
(S'\x07\xdb\x05\x11\x00\x00\x00\x00\x00\x00'
p1020
tp1021
Rp1022
sba(iyelp_data_provider
YelpReview
p1023
(dp1024
g25
S'4.0'
p1025
sg27
g28
(S'\x07\xdb\x05\x11\x00\x00\x00\x00\x00\x00'
p1026
tp1027
Rp1028
sba(iyelp_data_provider
YelpReview
p1029
(dp1030
g25
S'3.0'
p1031
sg27
g28
(S'\x07\xdb\x01\n\x00\x00\x00\x00\x00\x00'
p1032
tp1033
Rp1034
sba(iyelp_data_provider
YelpReview
p1035
(dp1036
g25
S'1.0'
p1037
sg27
g28
(S'\x07\xdb\x0b\n\x00\x00\x00\x00\x00\x00'
p1038
tp1039
Rp1040
sba(iyelp_data_provider
YelpReview
p1041
(dp1042
g25
S'4.0'
p1043
sg27
g28
(S'\x07\xdb\x01\n\x00\x00\x00\x00\x00\x00'
p1044
tp1045
Rp1046
sba(iyelp_data_provider
YelpReview
p1047
(dp1048
g25
S'4.0'
p1049
sg27
g28
(S'\x07\xdb\x05\x0c\x00\x00\x00\x00\x00\x00'
p1050
tp1051
Rp1052
sba(iyelp_data_provider
YelpReview
p1053
(dp1054
g25
S'3.0'
p1055
sg27
g28
(S'\x07\xdb\x02\x1a\x00\x00\x00\x00\x00\x00'
p1056
tp1057
Rp1058
sba(iyelp_data_provider
YelpReview
p1059
(dp1060
g25
S'5.0'
p1061
sg27
g28
(S'\x07\xdb\x04\x02\x00\x00\x00\x00\x00\x00'
p1062
tp1063
Rp1064
sba(iyelp_data_provider
YelpReview
p1065
(dp1066
g25
S'2.0'
p1067
sg27
g28
(S'\x07\xdb\x02\t\x00\x00\x00\x00\x00\x00'
p1068
tp1069
Rp1070
sba(iyelp_data_provider
YelpReview
p1071
(dp1072
g25
S'4.0'
p1073
sg27
g28
(S'\x07\xdb\x01\x1d\x00\x00\x00\x00\x00\x00'
p1074
tp1075
Rp1076
sba(iyelp_data_provider
YelpReview
p1077
(dp1078
g25
S'4.0'
p1079
sg27
g28
(S'\x07\xdb\x05\x07\x00\x00\x00\x00\x00\x00'
p1080
tp1081
Rp1082
sbasg32
I01
sg33
VNY
p1083
sg35
F40.764079
sg36
I01
sg37
S'$$$'
p1084
sg39
VuuDvk4EsRUkeTj4jVKJOpw
p1085
sba(iyelp_data_provider
YelpBusiness
p1086
(dp1087
g5
S'restaurant'
p1088
sg6
VNew York
p1089
sg8
I298
sg9
VLa Bonne Soupe
p1090
sg11
V10019
p1091
sg13
Vhttp://www.yelp.com/biz/la-bonne-soupe-new-york
p1092
sg15
V48 W 55th St
p1093
sg17
F3.5
sg18
g19
sg20
F-73.977035
sg21
(lp1094
(iyelp_data_provider
YelpReview
p1095
(dp1096
g25
S'4.0'
p1097
sg27
g28
(S'\x07\xdb\n\x17\x00\x00\x00\x00\x00\x00'
p1098
tp1099
Rp1100
sba(iyelp_data_provider
YelpReview
p1101
(dp1102
g25
S'5.0'
p1103
sg27
g28
(S'\x07\xdb\x08\x0e\x00\x00\x00\x00\x00\x00'
p1104
tp1105
Rp1106
sba(iyelp_data_provider
YelpReview
p1107
(dp1108
g25
S'4.0'
p1109
sg27
g28
(S'\x07\xdb\x0c\x0c\x00\x00\x00\x00\x00\x00'
p1110
tp1111
Rp1112
sba(iyelp_data_provider
YelpReview
p1113
(dp1114
g25
S'3.0'
p1115
sg27
g28
(S'\x07\xdb\x0b\x14\x00\x00\x00\x00\x00\x00'
p1116
tp1117
Rp1118
sba(iyelp_data_provider
YelpReview
p1119
(dp1120
g25
S'4.0'
p1121
sg27
g28
(S'\x07\xdb\x0b\x0e\x00\x00\x00\x00\x00\x00'
p1122
tp1123
Rp1124
sba(iyelp_data_provider
YelpReview
p1125
(dp1126
g25
S'4.0'
p1127
sg27
g28
(S'\x07\xdb\t\x01\x00\x00\x00\x00\x00\x00'
p1128
tp1129
Rp1130
sba(iyelp_data_provider
YelpReview
p1131
(dp1132
g25
S'4.0'
p1133
sg27
g28
(S'\x07\xdb\x06\x13\x00\x00\x00\x00\x00\x00'
p1134
tp1135
Rp1136
sba(iyelp_data_provider
YelpReview
p1137
(dp1138
g25
S'5.0'
p1139
sg27
g28
(S'\x07\xdb\x07\x18\x00\x00\x00\x00\x00\x00'
p1140
tp1141
Rp1142
sba(iyelp_data_provider
YelpReview
p1143
(dp1144
g25
S'3.0'
p1145
sg27
g28
(S'\x07\xdb\x06\x10\x00\x00\x00\x00\x00\x00'
p1146
tp1147
Rp1148
sba(iyelp_data_provider
YelpReview
p1149
(dp1150
g25
S'4.0'
p1151
sg27
g28
(S'\x07\xdb\x06\x05\x00\x00\x00\x00\x00\x00'
p1152
tp1153
Rp1154
sba(iyelp_data_provider
YelpReview
p1155
(dp1156
g25
S'5.0'
p1157
sg27
g28
(S'\x07\xdb\x0b\x04\x00\x00\x00\x00\x00\x00'
p1158
tp1159
Rp1160
sba(iyelp_data_provider
YelpReview
p1161
(dp1162
g25
S'3.0'
p1163
sg27
g28
(S'\x07\xdb\x0b\x16\x00\x00\x00\x00\x00\x00'
p1164
tp1165
Rp1166
sba(iyelp_data_provider
YelpReview
p1167
(dp1168
g25
S'3.0'
p1169
sg27
g28
(S'\x07\xdb\x06\x0f\x00\x00\x00\x00\x00\x00'
p1170
tp1171
Rp1172
sba(iyelp_data_provider
YelpReview
p1173
(dp1174
g25
S'4.0'
p1175
sg27
g28
(S'\x07\xdb\x02\x0e\x00\x00\x00\x00\x00\x00'
p1176
tp1177
Rp1178
sba(iyelp_data_provider
YelpReview
p1179
(dp1180
g25
S'3.0'
p1181
sg27
g28
(S'\x07\xdb\t\x1a\x00\x00\x00\x00\x00\x00'
p1182
tp1183
Rp1184
sba(iyelp_data_provider
YelpReview
p1185
(dp1186
g25
S'3.0'
p1187
sg27
g28
(S'\x07\xdb\x03\x08\x00\x00\x00\x00\x00\x00'
p1188
tp1189
Rp1190
sba(iyelp_data_provider
YelpReview
p1191
(dp1192
g25
S'2.0'
p1193
sg27
g28
(S'\x07\xdb\x05\t\x00\x00\x00\x00\x00\x00'
p1194
tp1195
Rp1196
sba(iyelp_data_provider
YelpReview
p1197
(dp1198
g25
S'2.0'
p1199
sg27
g28
(S'\x07\xdb\t\x12\x00\x00\x00\x00\x00\x00'
p1200
tp1201
Rp1202
sba(iyelp_data_provider
YelpReview
p1203
(dp1204
g25
S'2.0'
p1205
sg27
g28
(S'\x07\xdb\x08\x07\x00\x00\x00\x00\x00\x00'
p1206
tp1207
Rp1208
sba(iyelp_data_provider
YelpReview
p1209
(dp1210
g25
S'4.0'
p1211
sg27
g28
(S'\x07\xdb\t\x12\x00\x00\x00\x00\x00\x00'
p1212
tp1213
Rp1214
sba(iyelp_data_provider
YelpReview
p1215
(dp1216
g25
S'5.0'
p1217
sg27
g28
(S'\x07\xdb\x03\x1d\x00\x00\x00\x00\x00\x00'
p1218
tp1219
Rp1220
sba(iyelp_data_provider
YelpReview
p1221
(dp1222
g25
S'3.0'
p1223
sg27
g28
(S'\x07\xdb\x04\r\x00\x00\x00\x00\x00\x00'
p1224
tp1225
Rp1226
sba(iyelp_data_provider
YelpReview
p1227
(dp1228
g25
S'4.0'
p1229
sg27
g28
(S'\x07\xdb\x06\x1c\x00\x00\x00\x00\x00\x00'
p1230
tp1231
Rp1232
sba(iyelp_data_provider
YelpReview
p1233
(dp1234
g25
S'3.0'
p1235
sg27
g28
(S'\x07\xdb\x07\x15\x00\x00\x00\x00\x00\x00'
p1236
tp1237
Rp1238
sba(iyelp_data_provider
YelpReview
p1239
(dp1240
g25
S'3.0'
p1241
sg27
g28
(S'\x07\xdb\x01\x05\x00\x00\x00\x00\x00\x00'
p1242
tp1243
Rp1244
sba(iyelp_data_provider
YelpReview
p1245
(dp1246
g25
S'3.0'
p1247
sg27
g28
(S'\x07\xdb\x02\x02\x00\x00\x00\x00\x00\x00'
p1248
tp1249
Rp1250
sba(iyelp_data_provider
YelpReview
p1251
(dp1252
g25
S'4.0'
p1253
sg27
g28
(S'\x07\xdb\t\x08\x00\x00\x00\x00\x00\x00'
p1254
tp1255
Rp1256
sba(iyelp_data_provider
YelpReview
p1257
(dp1258
g25
S'4.0'
p1259
sg27
g28
(S'\x07\xdb\x0b\x0b\x00\x00\x00\x00\x00\x00'
p1260
tp1261
Rp1262
sba(iyelp_data_provider
YelpReview
p1263
(dp1264
g25
S'4.0'
p1265
sg27
g28
(S'\x07\xdb\x01\x0f\x00\x00\x00\x00\x00\x00'
p1266
tp1267
Rp1268
sba(iyelp_data_provider
YelpReview
p1269
(dp1270
g25
S'3.5'
p1271
sg27
g28
(S'\x07\xdb\x0b\r\x00\x00\x00\x00\x00\x00'
p1272
tp1273
Rp1274
sba(iyelp_data_provider
YelpReview
p1275
(dp1276
g25
S'3.0'
p1277
sg27
g28
(S'\x07\xdb\x0c\x01\x00\x00\x00\x00\x00\x00'
p1278
tp1279
Rp1280
sba(iyelp_data_provider
YelpReview
p1281
(dp1282
g25
S'4.0'
p1283
sg27
g28
(S'\x07\xdb\x08\x0b\x00\x00\x00\x00\x00\x00'
p1284
tp1285
Rp1286
sba(iyelp_data_provider
YelpReview
p1287
(dp1288
g25
S'4.0'
p1289
sg27
g28
(S'\x07\xdb\x01\x0f\x00\x00\x00\x00\x00\x00'
p1290
tp1291
Rp1292
sba(iyelp_data_provider
YelpReview
p1293
(dp1294
g25
S'4.0'
p1295
sg27
g28
(S'\x07\xdb\x01\n\x00\x00\x00\x00\x00\x00'
p1296
tp1297
Rp1298
sba(iyelp_data_provider
YelpReview
p1299
(dp1300
g25
S'3.0'
p1301
sg27
g28
(S'\x07\xdb\x02\r\x00\x00\x00\x00\x00\x00'
p1302
tp1303
Rp1304
sba(iyelp_data_provider
YelpReview
p1305
(dp1306
g25
S'4.0'
p1307
sg27
g28
(S'\x07\xdb\x02\x12\x00\x00\x00\x00\x00\x00'
p1308
tp1309
Rp1310
sba(iyelp_data_provider
YelpReview
p1311
(dp1312
g25
S'1.0'
p1313
sg27
g28
(S'\x07\xdb\t\x14\x00\x00\x00\x00\x00\x00'
p1314
tp1315
Rp1316
sba(iyelp_data_provider
YelpReview
p1317
(dp1318
g25
S'2.0'
p1319
sg27
g28
(S'\x07\xdb\t\x07\x00\x00\x00\x00\x00\x00'
p1320
tp1321
Rp1322
sba(iyelp_data_provider
YelpReview
p1323
(dp1324
g25
S'3.0'
p1325
sg27
g28
(S'\x07\xdb\x03\x15\x00\x00\x00\x00\x00\x00'
p1326
tp1327
Rp1328
sba(iyelp_data_provider
YelpReview
p1329
(dp1330
g25
S'5.0'
p1331
sg27
g28
(S'\x07\xdb\x07\x16\x00\x00\x00\x00\x00\x00'
p1332
tp1333
Rp1334
sba(iyelp_data_provider
YelpReview
p1335
(dp1336
g25
S'4.0'
p1337
sg27
g28
(S'\x07\xdb\x01\x14\x00\x00\x00\x00\x00\x00'
p1338
tp1339
Rp1340
sba(iyelp_data_provider
YelpReview
p1341
(dp1342
g25
S'1.0'
p1343
sg27
g28
(S'\x07\xdb\x05\x10\x00\x00\x00\x00\x00\x00'
p1344
tp1345
Rp1346
sba(iyelp_data_provider
YelpReview
p1347
(dp1348
g25
S'4.0'
p1349
sg27
g28
(S'\x07\xdb\x03\x12\x00\x00\x00\x00\x00\x00'
p1350
tp1351
Rp1352
sba(iyelp_data_provider
YelpReview
p1353
(dp1354
g25
S'4.0'
p1355
sg27
g28
(S'\x07\xdb\x05\x02\x00\x00\x00\x00\x00\x00'
p1356
tp1357
Rp1358
sba(iyelp_data_provider
YelpReview
p1359
(dp1360
g25
S'4.0'
p1361
sg27
g28
(S'\x07\xdb\x04\x19\x00\x00\x00\x00\x00\x00'
p1362
tp1363
Rp1364
sba(iyelp_data_provider
YelpReview
p1365
(dp1366
g25
S'4.0'
p1367
sg27
g28
(S'\x07\xdb\x05\x1e\x00\x00\x00\x00\x00\x00'
p1368
tp1369
Rp1370
sba(iyelp_data_provider
YelpReview
p1371
(dp1372
g25
S'5.0'
p1373
sg27
g28
(S'\x07\xdb\x02\x10\x00\x00\x00\x00\x00\x00'
p1374
tp1375
Rp1376
sba(iyelp_data_provider
YelpReview
p1377
(dp1378
g25
S'4.0'
p1379
sg27
g28
(S'\x07\xdb\x02\x18\x00\x00\x00\x00\x00\x00'
p1380
tp1381
Rp1382
sba(iyelp_data_provider
YelpReview
p1383
(dp1384
g25
S'4.0'
p1385
sg27
g28
(S'\x07\xdb\x01\x10\x00\x00\x00\x00\x00\x00'
p1386
tp1387
Rp1388
sba(iyelp_data_provider
YelpReview
p1389
(dp1390
g25
S'4.0'
p1391
sg27
g28
(S'\x07\xdb\x03\x18\x00\x00\x00\x00\x00\x00'
p1392
tp1393
Rp1394
sba(iyelp_data_provider
YelpReview
p1395
(dp1396
g25
S'3.0'
p1397
sg27
g28
(S'\x07\xdb\x04\x1b\x00\x00\x00\x00\x00\x00'
p1398
tp1399
Rp1400
sba(iyelp_data_provider
YelpReview
p1401
(dp1402
g25
S'5.0'
p1403
sg27
g28
(S'\x07\xdb\x01\x03\x00\x00\x00\x00\x00\x00'
p1404
tp1405
Rp1406
sba(iyelp_data_provider
YelpReview
p1407
(dp1408
g25
S'4.0'
p1409
sg27
g28
(S'\x07\xdb\x02\x18\x00\x00\x00\x00\x00\x00'
p1410
tp1411
Rp1412
sba(iyelp_data_provider
YelpReview
p1413
(dp1414
g25
S'3.0'
p1415
sg27
g28
(S'\x07\xdb\x01\x06\x00\x00\x00\x00\x00\x00'
p1416
tp1417
Rp1418
sba(iyelp_data_provider
YelpReview
p1419
(dp1420
g25
S'4.0'
p1421
sg27
g28
(S'\x07\xdb\n\x1b\x00\x00\x00\x00\x00\x00'
p1422
tp1423
Rp1424
sba(iyelp_data_provider
YelpReview
p1425
(dp1426
g25
S'4.0'
p1427
sg27
g28
(S'\x07\xdb\x08\x12\x00\x00\x00\x00\x00\x00'
p1428
tp1429
Rp1430
sba(iyelp_data_provider
YelpReview
p1431
(dp1432
g25
S'5.0'
p1433
sg27
g28
(S'\x07\xdb\x06\x14\x00\x00\x00\x00\x00\x00'
p1434
tp1435
Rp1436
sba(iyelp_data_provider
YelpReview
p1437
(dp1438
g25
S'3.0'
p1439
sg27
g28
(S'\x07\xdb\x04\x1b\x00\x00\x00\x00\x00\x00'
p1440
tp1441
Rp1442
sba(iyelp_data_provider
YelpReview
p1443
(dp1444
g25
S'4.0'
p1445
sg27
g28
(S'\x07\xdb\x01\x1a\x00\x00\x00\x00\x00\x00'
p1446
tp1447
Rp1448
sba(iyelp_data_provider
YelpReview
p1449
(dp1450
g25
S'3.0'
p1451
sg27
g28
(S'\x07\xdb\x07\x16\x00\x00\x00\x00\x00\x00'
p1452
tp1453
Rp1454
sba(iyelp_data_provider
YelpReview
p1455
(dp1456
g25
S'3.5'
p1457
sg27
g28
(S'\x07\xdb\x04\x0c\x00\x00\x00\x00\x00\x00'
p1458
tp1459
Rp1460
sba(iyelp_data_provider
YelpReview
p1461
(dp1462
g25
S'1.0'
p1463
sg27
g28
(S'\x07\xdb\x06\x15\x00\x00\x00\x00\x00\x00'
p1464
tp1465
Rp1466
sba(iyelp_data_provider
YelpReview
p1467
(dp1468
g25
S'4.0'
p1469
sg27
g28
(S'\x07\xdb\x03\x07\x00\x00\x00\x00\x00\x00'
p1470
tp1471
Rp1472
sba(iyelp_data_provider
YelpReview
p1473
(dp1474
g25
S'4.0'
p1475
sg27
g28
(S'\x07\xdb\x01\x08\x00\x00\x00\x00\x00\x00'
p1476
tp1477
Rp1478
sbasg32
I01
sg33
VNY
p1479
sg35
F40.762307
sg36
I01
sg37
S'$$'
p1480
sg39
VZxfXy-odIz_Xi1i9Uu00pg
p1481
sba(iyelp_data_provider
YelpBusiness
p1482
(dp1483
g5
S'restaurant'
p1484
sg6
VNew York
p1485
sg8
I103
sg9
VBenoit
p1486
sg11
V10019
p1487
sg13
Vhttp://www.yelp.com/biz/benoit-new-york
p1488
sg15
V60 W 55th St
p1489
sg17
F3.5
sg18
g19
sg20
F-73.9772295
sg21
(lp1490
(iyelp_data_provider
YelpReview
p1491
(dp1492
g25
S'3.0'
p1493
sg27
g28
(S'\x07\xdb\x0b\x04\x00\x00\x00\x00\x00\x00'
p1494
tp1495
Rp1496
sba(iyelp_data_provider
YelpReview
p1497
(dp1498
g25
S'3.0'
p1499
sg27
g28
(S'\x07\xdb\n\x03\x00\x00\x00\x00\x00\x00'
p1500
tp1501
Rp1502
sba(iyelp_data_provider
YelpReview
p1503
(dp1504
g25
S'3.0'
p1505
sg27
g28
(S'\x07\xdb\x07\x1f\x00\x00\x00\x00\x00\x00'
p1506
tp1507
Rp1508
sba(iyelp_data_provider
YelpReview
p1509
(dp1510
g25
S'2.0'
p1511
sg27
g28
(S'\x07\xdb\x07\x18\x00\x00\x00\x00\x00\x00'
p1512
tp1513
Rp1514
sba(iyelp_data_provider
YelpReview
p1515
(dp1516
g25
S'2.0'
p1517
sg27
g28
(S'\x07\xdb\n\x13\x00\x00\x00\x00\x00\x00'
p1518
tp1519
Rp1520
sba(iyelp_data_provider
YelpReview
p1521
(dp1522
g25
S'3.0'
p1523
sg27
g28
(S'\x07\xdb\x07\x0e\x00\x00\x00\x00\x00\x00'
p1524
tp1525
Rp1526
sba(iyelp_data_provider
YelpReview
p1527
(dp1528
g25
S'2.0'
p1529
sg27
g28
(S'\x07\xdb\x03\x15\x00\x00\x00\x00\x00\x00'
p1530
tp1531
Rp1532
sba(iyelp_data_provider
YelpReview
p1533
(dp1534
g25
S'4.0'
p1535
sg27
g28
(S'\x07\xdb\t\x17\x00\x00\x00\x00\x00\x00'
p1536
tp1537
Rp1538
sba(iyelp_data_provider
YelpReview
p1539
(dp1540
g25
S'4.0'
p1541
sg27
g28
(S'\x07\xdb\x01\x04\x00\x00\x00\x00\x00\x00'
p1542
tp1543
Rp1544
sba(iyelp_data_provider
YelpReview
p1545
(dp1546
g25
S'3.0'
p1547
sg27
g28
(S'\x07\xdb\x04\x12\x00\x00\x00\x00\x00\x00'
p1548
tp1549
Rp1550
sba(iyelp_data_provider
YelpReview
p1551
(dp1552
g25
S'5.0'
p1553
sg27
g28
(S'\x07\xdb\x08\r\x00\x00\x00\x00\x00\x00'
p1554
tp1555
Rp1556
sba(iyelp_data_provider
YelpReview
p1557
(dp1558
g25
S'4.0'
p1559
sg27
g28
(S'\x07\xdb\x03\x1f\x00\x00\x00\x00\x00\x00'
p1560
tp1561
Rp1562
sba(iyelp_data_provider
YelpReview
p1563
(dp1564
g25
S'5.0'
p1565
sg27
g28
(S'\x07\xdb\x03\x10\x00\x00\x00\x00\x00\x00'
p1566
tp1567
Rp1568
sba(iyelp_data_provider
YelpReview
p1569
(dp1570
g25
S'4.0'
p1571
sg27
g28
(S'\x07\xdb\t\x15\x00\x00\x00\x00\x00\x00'
p1572
tp1573
Rp1574
sba(iyelp_data_provider
YelpReview
p1575
(dp1576
g25
S'3.5'
p1577
sg27
g28
(S'\x07\xdb\x04\x15\x00\x00\x00\x00\x00\x00'
p1578
tp1579
Rp1580
sba(iyelp_data_provider
YelpReview
p1581
(dp1582
g25
S'4.0'
p1583
sg27
g28
(S'\x07\xdb\x02\x04\x00\x00\x00\x00\x00\x00'
p1584
tp1585
Rp1586
sba(iyelp_data_provider
YelpReview
p1587
(dp1588
g25
S'3.0'
p1589
sg27
g28
(S'\x07\xdb\x02\x13\x00\x00\x00\x00\x00\x00'
p1590
tp1591
Rp1592
sba(iyelp_data_provider
YelpReview
p1593
(dp1594
g25
S'2.0'
p1595
sg27
g28
(S'\x07\xdb\x0c\x0c\x00\x00\x00\x00\x00\x00'
p1596
tp1597
Rp1598
sba(iyelp_data_provider
YelpReview
p1599
(dp1600
g25
S'4.0'
p1601
sg27
g28
(S'\x07\xdb\x01\x01\x00\x00\x00\x00\x00\x00'
p1602
tp1603
Rp1604
sba(iyelp_data_provider
YelpReview
p1605
(dp1606
g25
S'2.0'
p1607
sg27
g28
(S'\x07\xdb\x04\x19\x00\x00\x00\x00\x00\x00'
p1608
tp1609
Rp1610
sbasg32
I01
sg33
VNY
p1611
sg35
F40.7625517
sg36
I01
sg37
S'$$$'
p1612
sg39
V3gtheZvv3Or0YzWXIl3SJg
p1613
sba(iyelp_data_provider
YelpBusiness
p1614
(dp1615
g5
S'restaurant'
p1616
sg6
VNew York
p1617
sg8
I114
sg9
VUncle Jack's Steakhouse
p1618
sg11
V10019
p1619
sg13
Vhttp://www.yelp.com/biz/uncle-jacks-steakhouse-new-york-2
p1620
sg15
V44 W 56th St
p1621
sg17
F3.5
sg18
g19
sg20
F-73.976695
sg21
(lp1622
(iyelp_data_provider
YelpReview
p1623
(dp1624
g25
S'5.0'
p1625
sg27
g28
(S'\x07\xdb\x0b\x0f\x00\x00\x00\x00\x00\x00'
p1626
tp1627
Rp1628
sba(iyelp_data_provider
YelpReview
p1629
(dp1630
g25
S'2.0'
p1631
sg27
g28
(S'\x07\xdb\t\x10\x00\x00\x00\x00\x00\x00'
p1632
tp1633
Rp1634
sba(iyelp_data_provider
YelpReview
p1635
(dp1636
g25
S'5.0'
p1637
sg27
g28
(S'\x07\xdb\x05\x0f\x00\x00\x00\x00\x00\x00'
p1638
tp1639
Rp1640
sba(iyelp_data_provider
YelpReview
p1641
(dp1642
g25
S'3.0'
p1643
sg27
g28
(S'\x07\xdb\x06\x03\x00\x00\x00\x00\x00\x00'
p1644
tp1645
Rp1646
sba(iyelp_data_provider
YelpReview
p1647
(dp1648
g25
S'5.0'
p1649
sg27
g28
(S'\x07\xdb\x03\x1b\x00\x00\x00\x00\x00\x00'
p1650
tp1651
Rp1652
sba(iyelp_data_provider
YelpReview
p1653
(dp1654
g25
S'5.0'
p1655
sg27
g28
(S'\x07\xdb\n\x18\x00\x00\x00\x00\x00\x00'
p1656
tp1657
Rp1658
sba(iyelp_data_provider
YelpReview
p1659
(dp1660
g25
S'4.0'
p1661
sg27
g28
(S'\x07\xdb\t\x11\x00\x00\x00\x00\x00\x00'
p1662
tp1663
Rp1664
sba(iyelp_data_provider
YelpReview
p1665
(dp1666
g25
S'4.0'
p1667
sg27
g28
(S'\x07\xdb\x08\x16\x00\x00\x00\x00\x00\x00'
p1668
tp1669
Rp1670
sba(iyelp_data_provider
YelpReview
p1671
(dp1672
g25
S'4.0'
p1673
sg27
g28
(S'\x07\xdb\x0b\x06\x00\x00\x00\x00\x00\x00'
p1674
tp1675
Rp1676
sba(iyelp_data_provider
YelpReview
p1677
(dp1678
g25
S'5.0'
p1679
sg27
g28
(S'\x07\xdb\x05\x1e\x00\x00\x00\x00\x00\x00'
p1680
tp1681
Rp1682
sba(iyelp_data_provider
YelpReview
p1683
(dp1684
g25
S'3.0'
p1685
sg27
g28
(S'\x07\xdb\x02\x13\x00\x00\x00\x00\x00\x00'
p1686
tp1687
Rp1688
sba(iyelp_data_provider
YelpReview
p1689
(dp1690
g25
S'5.0'
p1691
sg27
g28
(S'\x07\xdb\n\x04\x00\x00\x00\x00\x00\x00'
p1692
tp1693
Rp1694
sba(iyelp_data_provider
YelpReview
p1695
(dp1696
g25
S'5.0'
p1697
sg27
g28
(S'\x07\xdb\x02\x05\x00\x00\x00\x00\x00\x00'
p1698
tp1699
Rp1700
sba(iyelp_data_provider
YelpReview
p1701
(dp1702
g25
S'3.0'
p1703
sg27
g28
(S'\x07\xdb\x02\x0c\x00\x00\x00\x00\x00\x00'
p1704
tp1705
Rp1706
sba(iyelp_data_provider
YelpReview
p1707
(dp1708
g25
S'4.0'
p1709
sg27
g28
(S'\x07\xdb\x08\x17\x00\x00\x00\x00\x00\x00'
p1710
tp1711
Rp1712
sbasg32
I01
sg33
VNY
p1713
sg35
F40.762982
sg36
I01
sg37
S'$$$$'
p1714
sg39
VnSn3Qrz02c0KtbvoK9Wh7Q
p1715
sba(iyelp_data_provider
YelpBusiness
p1716
(dp1717
g5
S'restaurant'
p1718
sg6
VNew York
p1719
sg8
I71
sg9
VAbboccato
p1720
sg11
V10019
p1721
sg13
Vhttp://www.yelp.com/biz/abboccato-new-york
p1722
sg15
V136 W 55th St
p1723
sg17
F3.5
sg18
g19
sg20
F-73.9798441
sg21
(lp1724
(iyelp_data_provider
YelpReview
p1725
(dp1726
g25
S'4.0'
p1727
sg27
g28
(S'\x07\xdb\n\x19\x00\x00\x00\x00\x00\x00'
p1728
tp1729
Rp1730
sba(iyelp_data_provider
YelpReview
p1731
(dp1732
g25
S'4.0'
p1733
sg27
g28
(S'\x07\xdb\x05\x03\x00\x00\x00\x00\x00\x00'
p1734
tp1735
Rp1736
sba(iyelp_data_provider
YelpReview
p1737
(dp1738
g25
S'3.0'
p1739
sg27
g28
(S'\x07\xdb\x04\x08\x00\x00\x00\x00\x00\x00'
p1740
tp1741
Rp1742
sba(iyelp_data_provider
YelpReview
p1743
(dp1744
g25
S'3.0'
p1745
sg27
g28
(S'\x07\xdb\x0c\x0b\x00\x00\x00\x00\x00\x00'
p1746
tp1747
Rp1748
sba(iyelp_data_provider
YelpReview
p1749
(dp1750
g25
S'4.0'
p1751
sg27
g28
(S'\x07\xdb\x05\n\x00\x00\x00\x00\x00\x00'
p1752
tp1753
Rp1754
sba(iyelp_data_provider
YelpReview
p1755
(dp1756
g25
S'3.0'
p1757
sg27
g28
(S'\x07\xdb\x0c\x06\x00\x00\x00\x00\x00\x00'
p1758
tp1759
Rp1760
sba(iyelp_data_provider
YelpReview
p1761
(dp1762
g25
S'5.0'
p1763
sg27
g28
(S'\x07\xdb\x01\x17\x00\x00\x00\x00\x00\x00'
p1764
tp1765
Rp1766
sba(iyelp_data_provider
YelpReview
p1767
(dp1768
g25
S'4.0'
p1769
sg27
g28
(S'\x07\xdb\x04\x04\x00\x00\x00\x00\x00\x00'
p1770
tp1771
Rp1772
sba(iyelp_data_provider
YelpReview
p1773
(dp1774
g25
S'2.0'
p1775
sg27
g28
(S'\x07\xdb\x0b\x18\x00\x00\x00\x00\x00\x00'
p1776
tp1777
Rp1778
sba(iyelp_data_provider
YelpReview
p1779
(dp1780
g25
S'4.0'
p1781
sg27
g28
(S'\x07\xdb\x0b\x11\x00\x00\x00\x00\x00\x00'
p1782
tp1783
Rp1784
sba(iyelp_data_provider
YelpReview
p1785
(dp1786
g25
S'3.0'
p1787
sg27
g28
(S'\x07\xdb\x02\x17\x00\x00\x00\x00\x00\x00'
p1788
tp1789
Rp1790
sba(iyelp_data_provider
YelpReview
p1791
(dp1792
g25
S'2.0'
p1793
sg27
g28
(S'\x07\xdb\x02\x01\x00\x00\x00\x00\x00\x00'
p1794
tp1795
Rp1796
sba(iyelp_data_provider
YelpReview
p1797
(dp1798
g25
S'3.0'
p1799
sg27
g28
(S'\x07\xdb\x06\x10\x00\x00\x00\x00\x00\x00'
p1800
tp1801
Rp1802
sba(iyelp_data_provider
YelpReview
p1803
(dp1804
g25
S'3.0'
p1805
sg27
g28
(S'\x07\xdb\x02\x0f\x00\x00\x00\x00\x00\x00'
p1806
tp1807
Rp1808
sba(iyelp_data_provider
YelpReview
p1809
(dp1810
g25
S'2.0'
p1811
sg27
g28
(S'\x07\xdb\x07\x15\x00\x00\x00\x00\x00\x00'
p1812
tp1813
Rp1814
sbasg32
I01
sg33
VNY
p1815
sg35
F40.7635096
sg36
I01
sg37
S'$$$'
p1816
sg39
VcF4kkEDq43CCuXQm99hN4w
p1817
sba(iyelp_data_provider
YelpBusiness
p1818
(dp1819
g5
S'restaurant'
p1820
sg6
VNew York
p1821
sg8
I367
sg9
VJoe's Shanghai
p1822
sg11
V10019
p1823
sg13
Vhttp://www.yelp.com/biz/joes-shanghai-new-york
p1824
sg15
V24 W 56th St
p1825
sg17
F3.0
sg18
g19
sg20
F-73.9759132
sg21
(lp1826
(iyelp_data_provider
YelpReview
p1827
(dp1828
g25
S'3.0'
p1829
sg27
g28
(S'\x07\xdb\x0b\x1b\x00\x00\x00\x00\x00\x00'
p1830
tp1831
Rp1832
sba(iyelp_data_provider
YelpReview
p1833
(dp1834
g25
S'4.0'
p1835
sg27
g28
(S'\x07\xdb\x08\x0f\x00\x00\x00\x00\x00\x00'
p1836
tp1837
Rp1838
sba(iyelp_data_provider
YelpReview
p1839
(dp1840
g25
S'3.0'
p1841
sg27
g28
(S'\x07\xdb\t\x06\x00\x00\x00\x00\x00\x00'
p1842
tp1843
Rp1844
sba(iyelp_data_provider
YelpReview
p1845
(dp1846
g25
S'3.0'
p1847
sg27
g28
(S'\x07\xdb\t\x12\x00\x00\x00\x00\x00\x00'
p1848
tp1849
Rp1850
sba(iyelp_data_provider
YelpReview
p1851
(dp1852
g25
S'3.0'
p1853
sg27
g28
(S'\x07\xdb\n\x0c\x00\x00\x00\x00\x00\x00'
p1854
tp1855
Rp1856
sba(iyelp_data_provider
YelpReview
p1857
(dp1858
g25
S'2.0'
p1859
sg27
g28
(S'\x07\xdb\x0c\x01\x00\x00\x00\x00\x00\x00'
p1860
tp1861
Rp1862
sba(iyelp_data_provider
YelpReview
p1863
(dp1864
g25
S'2.0'
p1865
sg27
g28
(S'\x07\xdb\t\x18\x00\x00\x00\x00\x00\x00'
p1866
tp1867
Rp1868
sba(iyelp_data_provider
YelpReview
p1869
(dp1870
g25
S'3.0'
p1871
sg27
g28
(S'\x07\xdb\n\x1f\x00\x00\x00\x00\x00\x00'
p1872
tp1873
Rp1874
sba(iyelp_data_provider
YelpReview
p1875
(dp1876
g25
S'1.0'
p1877
sg27
g28
(S'\x07\xdb\x07\x0b\x00\x00\x00\x00\x00\x00'
p1878
tp1879
Rp1880
sba(iyelp_data_provider
YelpReview
p1881
(dp1882
g25
S'2.0'
p1883
sg27
g28
(S'\x07\xdb\t\x16\x00\x00\x00\x00\x00\x00'
p1884
tp1885
Rp1886
sba(iyelp_data_provider
YelpReview
p1887
(dp1888
g25
S'3.0'
p1889
sg27
g28
(S'\x07\xdb\x06\x03\x00\x00\x00\x00\x00\x00'
p1890
tp1891
Rp1892
sba(iyelp_data_provider
YelpReview
p1893
(dp1894
g25
S'3.0'
p1895
sg27
g28
(S'\x07\xdb\x0b\x01\x00\x00\x00\x00\x00\x00'
p1896
tp1897
Rp1898
sba(iyelp_data_provider
YelpReview
p1899
(dp1900
g25
S'4.0'
p1901
sg27
g28
(S'\x07\xdb\x0b\x10\x00\x00\x00\x00\x00\x00'
p1902
tp1903
Rp1904
sba(iyelp_data_provider
YelpReview
p1905
(dp1906
g25
S'4.0'
p1907
sg27
g28
(S'\x07\xdb\x05\x03\x00\x00\x00\x00\x00\x00'
p1908
tp1909
Rp1910
sba(iyelp_data_provider
YelpReview
p1911
(dp1912
g25
S'3.0'
p1913
sg27
g28
(S'\x07\xdb\x03\x0e\x00\x00\x00\x00\x00\x00'
p1914
tp1915
Rp1916
sba(iyelp_data_provider
YelpReview
p1917
(dp1918
g25
S'4.0'
p1919
sg27
g28
(S'\x07\xdb\x04\x0b\x00\x00\x00\x00\x00\x00'
p1920
tp1921
Rp1922
sba(iyelp_data_provider
YelpReview
p1923
(dp1924
g25
S'1.0'
p1925
sg27
g28
(S'\x07\xdb\x08\x1b\x00\x00\x00\x00\x00\x00'
p1926
tp1927
Rp1928
sba(iyelp_data_provider
YelpReview
p1929
(dp1930
g25
S'4.0'
p1931
sg27
g28
(S'\x07\xdb\x02\x12\x00\x00\x00\x00\x00\x00'
p1932
tp1933
Rp1934
sba(iyelp_data_provider
YelpReview
p1935
(dp1936
g25
S'4.0'
p1937
sg27
g28
(S'\x07\xdb\x06\n\x00\x00\x00\x00\x00\x00'
p1938
tp1939
Rp1940
sba(iyelp_data_provider
YelpReview
p1941
(dp1942
g25
S'3.0'
p1943
sg27
g28
(S'\x07\xdb\x08\x11\x00\x00\x00\x00\x00\x00'
p1944
tp1945
Rp1946
sba(iyelp_data_provider
YelpReview
p1947
(dp1948
g25
S'3.0'
p1949
sg27
g28
(S'\x07\xdb\x01\x08\x00\x00\x00\x00\x00\x00'
p1950
tp1951
Rp1952
sba(iyelp_data_provider
YelpReview
p1953
(dp1954
g25
S'4.0'
p1955
sg27
g28
(S'\x07\xdb\x03\x19\x00\x00\x00\x00\x00\x00'
p1956
tp1957
Rp1958
sba(iyelp_data_provider
YelpReview
p1959
(dp1960
g25
S'5.0'
p1961
sg27
g28
(S'\x07\xdb\x06\x07\x00\x00\x00\x00\x00\x00'
p1962
tp1963
Rp1964
sba(iyelp_data_provider
YelpReview
p1965
(dp1966
g25
S'2.0'
p1967
sg27
g28
(S'\x07\xdb\x02\x18\x00\x00\x00\x00\x00\x00'
p1968
tp1969
Rp1970
sba(iyelp_data_provider
YelpReview
p1971
(dp1972
g25
S'3.0'
p1973
sg27
g28
(S'\x07\xdb\x04\r\x00\x00\x00\x00\x00\x00'
p1974
tp1975
Rp1976
sba(iyelp_data_provider
YelpReview
p1977
(dp1978
g25
S'5.0'
p1979
sg27
g28
(S'\x07\xdb\x02\x10\x00\x00\x00\x00\x00\x00'
p1980
tp1981
Rp1982
sba(iyelp_data_provider
YelpReview
p1983
(dp1984
g25
S'2.0'
p1985
sg27
g28
(S'\x07\xdb\x03\x17\x00\x00\x00\x00\x00\x00'
p1986
tp1987
Rp1988
sba(iyelp_data_provider
YelpReview
p1989
(dp1990
g25
S'3.0'
p1991
sg27
g28
(S'\x07\xdb\x03\x1e\x00\x00\x00\x00\x00\x00'
p1992
tp1993
Rp1994
sba(iyelp_data_provider
YelpReview
p1995
(dp1996
g25
S'4.0'
p1997
sg27
g28
(S'\x07\xdb\x0b\x0b\x00\x00\x00\x00\x00\x00'
p1998
tp1999
Rp2000
sba(iyelp_data_provider
YelpReview
p2001
(dp2002
g25
S'4.0'
p2003
sg27
g28
(S'\x07\xdb\x01\x15\x00\x00\x00\x00\x00\x00'
p2004
tp2005
Rp2006
sba(iyelp_data_provider
YelpReview
p2007
(dp2008
g25
S'4.0'
p2009
sg27
g28
(S'\x07\xdb\x08\x17\x00\x00\x00\x00\x00\x00'
p2010
tp2011
Rp2012
sba(iyelp_data_provider
YelpReview
p2013
(dp2014
g25
S'4.0'
p2015
sg27
g28
(S'\x07\xdb\x07\x15\x00\x00\x00\x00\x00\x00'
p2016
tp2017
Rp2018
sba(iyelp_data_provider
YelpReview
p2019
(dp2020
g25
S'4.0'
p2021
sg27
g28
(S'\x07\xdb\x04\x01\x00\x00\x00\x00\x00\x00'
p2022
tp2023
Rp2024
sba(iyelp_data_provider
YelpReview
p2025
(dp2026
g25
S'3.0'
p2027
sg27
g28
(S'\x07\xdb\x01\x12\x00\x00\x00\x00\x00\x00'
p2028
tp2029
Rp2030
sba(iyelp_data_provider
YelpReview
p2031
(dp2032
g25
S'1.0'
p2033
sg27
g28
(S'\x07\xdb\x04\x02\x00\x00\x00\x00\x00\x00'
p2034
tp2035
Rp2036
sba(iyelp_data_provider
YelpReview
p2037
(dp2038
g25
S'1.0'
p2039
sg27
g28
(S'\x07\xdb\x08\x07\x00\x00\x00\x00\x00\x00'
p2040
tp2041
Rp2042
sba(iyelp_data_provider
YelpReview
p2043
(dp2044
g25
S'3.0'
p2045
sg27
g28
(S'\x07\xdb\x02\x08\x00\x00\x00\x00\x00\x00'
p2046
tp2047
Rp2048
sba(iyelp_data_provider
YelpReview
p2049
(dp2050
g25
S'4.0'
p2051
sg27
g28
(S'\x07\xdb\x01\x1f\x00\x00\x00\x00\x00\x00'
p2052
tp2053
Rp2054
sba(iyelp_data_provider
YelpReview
p2055
(dp2056
g25
S'4.0'
p2057
sg27
g28
(S'\x07\xdb\x03\x16\x00\x00\x00\x00\x00\x00'
p2058
tp2059
Rp2060
sba(iyelp_data_provider
YelpReview
p2061
(dp2062
g25
S'4.0'
p2063
sg27
g28
(S'\x07\xdb\x01\x19\x00\x00\x00\x00\x00\x00'
p2064
tp2065
Rp2066
sba(iyelp_data_provider
YelpReview
p2067
(dp2068
g25
S'3.0'
p2069
sg27
g28
(S'\x07\xdb\x01\x19\x00\x00\x00\x00\x00\x00'
p2070
tp2071
Rp2072
sba(iyelp_data_provider
YelpReview
p2073
(dp2074
g25
S'5.0'
p2075
sg27
g28
(S'\x07\xdb\x04\x04\x00\x00\x00\x00\x00\x00'
p2076
tp2077
Rp2078
sba(iyelp_data_provider
YelpReview
p2079
(dp2080
g25
S'2.0'
p2081
sg27
g28
(S'\x07\xdb\x01\x06\x00\x00\x00\x00\x00\x00'
p2082
tp2083
Rp2084
sba(iyelp_data_provider
YelpReview
p2085
(dp2086
g25
S'3.0'
p2087
sg27
g28
(S'\x07\xdb\x04\x14\x00\x00\x00\x00\x00\x00'
p2088
tp2089
Rp2090
sba(iyelp_data_provider
YelpReview
p2091
(dp2092
g25
S'3.0'
p2093
sg27
g28
(S'\x07\xdb\x04\x0f\x00\x00\x00\x00\x00\x00'
p2094
tp2095
Rp2096
sba(iyelp_data_provider
YelpReview
p2097
(dp2098
g25
S'2.0'
p2099
sg27
g28
(S'\x07\xdb\x0b\x12\x00\x00\x00\x00\x00\x00'
p2100
tp2101
Rp2102
sba(iyelp_data_provider
YelpReview
p2103
(dp2104
g25
S'4.0'
p2105
sg27
g28
(S'\x07\xdb\n\x01\x00\x00\x00\x00\x00\x00'
p2106
tp2107
Rp2108
sba(iyelp_data_provider
YelpReview
p2109
(dp2110
g25
S'3.0'
p2111
sg27
g28
(S'\x07\xdb\x08\x1b\x00\x00\x00\x00\x00\x00'
p2112
tp2113
Rp2114
sba(iyelp_data_provider
YelpReview
p2115
(dp2116
g25
S'3.0'
p2117
sg27
g28
(S'\x07\xdb\x08\x15\x00\x00\x00\x00\x00\x00'
p2118
tp2119
Rp2120
sba(iyelp_data_provider
YelpReview
p2121
(dp2122
g25
S'4.0'
p2123
sg27
g28
(S'\x07\xdb\x03\x1e\x00\x00\x00\x00\x00\x00'
p2124
tp2125
Rp2126
sba(iyelp_data_provider
YelpReview
p2127
(dp2128
g25
S'4.0'
p2129
sg27
g28
(S'\x07\xdb\x07\x19\x00\x00\x00\x00\x00\x00'
p2130
tp2131
Rp2132
sba(iyelp_data_provider
YelpReview
p2133
(dp2134
g25
S'5.0'
p2135
sg27
g28
(S'\x07\xdb\x08\x0e\x00\x00\x00\x00\x00\x00'
p2136
tp2137
Rp2138
sba(iyelp_data_provider
YelpReview
p2139
(dp2140
g25
S'2.0'
p2141
sg27
g28
(S'\x07\xdb\n\x05\x00\x00\x00\x00\x00\x00'
p2142
tp2143
Rp2144
sba(iyelp_data_provider
YelpReview
p2145
(dp2146
g25
S'4.0'
p2147
sg27
g28
(S'\x07\xdb\x06\x0c\x00\x00\x00\x00\x00\x00'
p2148
tp2149
Rp2150
sba(iyelp_data_provider
YelpReview
p2151
(dp2152
g25
S'3.0'
p2153
sg27
g28
(S'\x07\xdb\x06\x0b\x00\x00\x00\x00\x00\x00'
p2154
tp2155
Rp2156
sba(iyelp_data_provider
YelpReview
p2157
(dp2158
g25
S'4.0'
p2159
sg27
g28
(S'\x07\xdb\t\x19\x00\x00\x00\x00\x00\x00'
p2160
tp2161
Rp2162
sba(iyelp_data_provider
YelpReview
p2163
(dp2164
g25
S'3.0'
p2165
sg27
g28
(S'\x07\xdb\x08\x15\x00\x00\x00\x00\x00\x00'
p2166
tp2167
Rp2168
sba(iyelp_data_provider
YelpReview
p2169
(dp2170
g25
S'3.0'
p2171
sg27
g28
(S'\x07\xdb\n\x04\x00\x00\x00\x00\x00\x00'
p2172
tp2173
Rp2174
sba(iyelp_data_provider
YelpReview
p2175
(dp2176
g25
S'2.0'
p2177
sg27
g28
(S'\x07\xdb\x05\x17\x00\x00\x00\x00\x00\x00'
p2178
tp2179
Rp2180
sba(iyelp_data_provider
YelpReview
p2181
(dp2182
g25
S'4.0'
p2183
sg27
g28
(S'\x07\xdb\t\x0e\x00\x00\x00\x00\x00\x00'
p2184
tp2185
Rp2186
sba(iyelp_data_provider
YelpReview
p2187
(dp2188
g25
S'3.0'
p2189
sg27
g28
(S'\x07\xdb\x08\x07\x00\x00\x00\x00\x00\x00'
p2190
tp2191
Rp2192
sba(iyelp_data_provider
YelpReview
p2193
(dp2194
g25
S'5.0'
p2195
sg27
g28
(S'\x07\xdb\x08\x1f\x00\x00\x00\x00\x00\x00'
p2196
tp2197
Rp2198
sba(iyelp_data_provider
YelpReview
p2199
(dp2200
g25
S'2.0'
p2201
sg27
g28
(S'\x07\xdb\x02\x14\x00\x00\x00\x00\x00\x00'
p2202
tp2203
Rp2204
sba(iyelp_data_provider
YelpReview
p2205
(dp2206
g25
S'4.0'
p2207
sg27
g28
(S'\x07\xdb\x05\x1e\x00\x00\x00\x00\x00\x00'
p2208
tp2209
Rp2210
sba(iyelp_data_provider
YelpReview
p2211
(dp2212
g25
S'1.0'
p2213
sg27
g28
(S'\x07\xdb\x07\x12\x00\x00\x00\x00\x00\x00'
p2214
tp2215
Rp2216
sba(iyelp_data_provider
YelpReview
p2217
(dp2218
g25
S'2.0'
p2219
sg27
g28
(S'\x07\xdb\x01\x16\x00\x00\x00\x00\x00\x00'
p2220
tp2221
Rp2222
sba(iyelp_data_provider
YelpReview
p2223
(dp2224
g25
S'1.0'
p2225
sg27
g28
(S'\x07\xdb\x07\x16\x00\x00\x00\x00\x00\x00'
p2226
tp2227
Rp2228
sba(iyelp_data_provider
YelpReview
p2229
(dp2230
g25
S'2.0'
p2231
sg27
g28
(S'\x07\xdb\x05\x1a\x00\x00\x00\x00\x00\x00'
p2232
tp2233
Rp2234
sba(iyelp_data_provider
YelpReview
p2235
(dp2236
g25
S'3.0'
p2237
sg27
g28
(S'\x07\xdb\x04\x0f\x00\x00\x00\x00\x00\x00'
p2238
tp2239
Rp2240
sba(iyelp_data_provider
YelpReview
p2241
(dp2242
g25
S'3.0'
p2243
sg27
g28
(S'\x07\xdb\x01\x03\x00\x00\x00\x00\x00\x00'
p2244
tp2245
Rp2246
sba(iyelp_data_provider
YelpReview
p2247
(dp2248
g25
S'3.0'
p2249
sg27
g28
(S'\x07\xdb\x03\x19\x00\x00\x00\x00\x00\x00'
p2250
tp2251
Rp2252
sba(iyelp_data_provider
YelpReview
p2253
(dp2254
g25
S'4.0'
p2255
sg27
g28
(S'\x07\xdb\x04\r\x00\x00\x00\x00\x00\x00'
p2256
tp2257
Rp2258
sba(iyelp_data_provider
YelpReview
p2259
(dp2260
g25
S'3.0'
p2261
sg27
g28
(S'\x07\xdb\x03\x14\x00\x00\x00\x00\x00\x00'
p2262
tp2263
Rp2264
sba(iyelp_data_provider
YelpReview
p2265
(dp2266
g25
S'4.0'
p2267
sg27
g28
(S'\x07\xdb\x03\x0c\x00\x00\x00\x00\x00\x00'
p2268
tp2269
Rp2270
sba(iyelp_data_provider
YelpReview
p2271
(dp2272
g25
S'4.0'
p2273
sg27
g28
(S'\x07\xdb\x01\x10\x00\x00\x00\x00\x00\x00'
p2274
tp2275
Rp2276
sba(iyelp_data_provider
YelpReview
p2277
(dp2278
g25
S'3.0'
p2279
sg27
g28
(S'\x07\xdb\x03\x12\x00\x00\x00\x00\x00\x00'
p2280
tp2281
Rp2282
sba(iyelp_data_provider
YelpReview
p2283
(dp2284
g25
S'4.0'
p2285
sg27
g28
(S'\x07\xdb\x01\x14\x00\x00\x00\x00\x00\x00'
p2286
tp2287
Rp2288
sba(iyelp_data_provider
YelpReview
p2289
(dp2290
g25
S'3.0'
p2291
sg27
g28
(S'\x07\xdb\n\x16\x00\x00\x00\x00\x00\x00'
p2292
tp2293
Rp2294
sba(iyelp_data_provider
YelpReview
p2295
(dp2296
g25
S'1.0'
p2297
sg27
g28
(S'\x07\xdb\n\x1a\x00\x00\x00\x00\x00\x00'
p2298
tp2299
Rp2300
sba(iyelp_data_provider
YelpReview
p2301
(dp2302
g25
S'1.0'
p2303
sg27
g28
(S'\x07\xdb\x04\t\x00\x00\x00\x00\x00\x00'
p2304
tp2305
Rp2306
sba(iyelp_data_provider
YelpReview
p2307
(dp2308
g25
S'4.0'
p2309
sg27
g28
(S'\x07\xdb\x08\x1d\x00\x00\x00\x00\x00\x00'
p2310
tp2311
Rp2312
sba(iyelp_data_provider
YelpReview
p2313
(dp2314
g25
S'1.0'
p2315
sg27
g28
(S'\x07\xdb\x08\x1b\x00\x00\x00\x00\x00\x00'
p2316
tp2317
Rp2318
sba(iyelp_data_provider
YelpReview
p2319
(dp2320
g25
S'3.0'
p2321
sg27
g28
(S'\x07\xdb\x03\x03\x00\x00\x00\x00\x00\x00'
p2322
tp2323
Rp2324
sba(iyelp_data_provider
YelpReview
p2325
(dp2326
g25
S'5.0'
p2327
sg27
g28
(S'\x07\xdb\x06\r\x00\x00\x00\x00\x00\x00'
p2328
tp2329
Rp2330
sba(iyelp_data_provider
YelpReview
p2331
(dp2332
g25
S'3.0'
p2333
sg27
g28
(S'\x07\xdb\x04\x1e\x00\x00\x00\x00\x00\x00'
p2334
tp2335
Rp2336
sba(iyelp_data_provider
YelpReview
p2337
(dp2338
g25
S'1.0'
p2339
sg27
g28
(S'\x07\xdb\x02\x14\x00\x00\x00\x00\x00\x00'
p2340
tp2341
Rp2342
sbasg32
I01
sg33
VNY
p2343
sg35
F40.7627488
sg36
I01
sg37
S'$$'
p2344
sg39
V6hacsz7FUwprKTjJb6KFog
p2345
sba(iyelp_data_provider
YelpBusiness
p2346
(dp2347
g5
S'restaurant'
p2348
sg6
VManhattan
p2349
sg8
I43
sg9
VDig Inn Seasonal Market
p2350
sg11
V10019
p2351
sg13
Vhttp://www.yelp.com/biz/dig-inn-seasonal-market-manhattan-7
p2352
sg15
V40 W 55th St
p2353
sg17
F3.5
sg18
g19
sg20
F-73.976755
sg21
(lp2354
(iyelp_data_provider
YelpReview
p2355
(dp2356
g25
S'3.0'
p2357
sg27
g28
(S'\x07\xdb\n\x0e\x00\x00\x00\x00\x00\x00'
p2358
tp2359
Rp2360
sba(iyelp_data_provider
YelpReview
p2361
(dp2362
g25
S'4.0'
p2363
sg27
g28
(S'\x07\xdb\x0c\x07\x00\x00\x00\x00\x00\x00'
p2364
tp2365
Rp2366
sba(iyelp_data_provider
YelpReview
p2367
(dp2368
g25
S'5.0'
p2369
sg27
g28
(S'\x07\xdb\n\x15\x00\x00\x00\x00\x00\x00'
p2370
tp2371
Rp2372
sba(iyelp_data_provider
YelpReview
p2373
(dp2374
g25
S'5.0'
p2375
sg27
g28
(S'\x07\xdb\x0b\t\x00\x00\x00\x00\x00\x00'
p2376
tp2377
Rp2378
sba(iyelp_data_provider
YelpReview
p2379
(dp2380
g25
S'4.0'
p2381
sg27
g28
(S'\x07\xdb\n\x1c\x00\x00\x00\x00\x00\x00'
p2382
tp2383
Rp2384
sba(iyelp_data_provider
YelpReview
p2385
(dp2386
g25
S'4.0'
p2387
sg27
g28
(S'\x07\xdb\n\x1a\x00\x00\x00\x00\x00\x00'
p2388
tp2389
Rp2390
sba(iyelp_data_provider
YelpReview
p2391
(dp2392
g25
S'3.0'
p2393
sg27
g28
(S'\x07\xdb\x0c\x02\x00\x00\x00\x00\x00\x00'
p2394
tp2395
Rp2396
sbasg32
I01
sg33
VNY
p2397
sg35
F40.7623202
sg36
I01
sg37
S'$$'
p2398
sg39
VbtDc58odxR_71u8RCtQwOw
p2399
sba(iyelp_data_provider
YelpBusiness
p2400
(dp2401
g5
S'restaurant'
p2402
sg6
VNew York
p2403
sg8
I44
sg9
VBistro Milano
p2404
sg11
V10022
p2405
sg13
Vhttp://www.yelp.com/biz/bistro-milano-new-york
p2406
sg15
V1350 Ave of the Americas
p2407
sg17
F3.5
sg18
g19
sg20
F-73.977621
sg21
(lp2408
(iyelp_data_provider
YelpReview
p2409
(dp2410
g25
S'5.0'
p2411
sg27
g28
(S'\x07\xdb\x07\x1f\x00\x00\x00\x00\x00\x00'
p2412
tp2413
Rp2414
sba(iyelp_data_provider
YelpReview
p2415
(dp2416
g25
S'5.0'
p2417
sg27
g28
(S'\x07\xdb\x08\x05\x00\x00\x00\x00\x00\x00'
p2418
tp2419
Rp2420
sba(iyelp_data_provider
YelpReview
p2421
(dp2422
g25
S'4.0'
p2423
sg27
g28
(S'\x07\xdb\t\x07\x00\x00\x00\x00\x00\x00'
p2424
tp2425
Rp2426
sba(iyelp_data_provider
YelpReview
p2427
(dp2428
g25
S'2.0'
p2429
sg27
g28
(S'\x07\xdb\x08\x0f\x00\x00\x00\x00\x00\x00'
p2430
tp2431
Rp2432
sba(iyelp_data_provider
YelpReview
p2433
(dp2434
g25
S'4.0'
p2435
sg27
g28
(S'\x07\xdb\x08\x01\x00\x00\x00\x00\x00\x00'
p2436
tp2437
Rp2438
sba(iyelp_data_provider
YelpReview
p2439
(dp2440
g25
S'3.0'
p2441
sg27
g28
(S'\x07\xdb\x06\x14\x00\x00\x00\x00\x00\x00'
p2442
tp2443
Rp2444
sba(iyelp_data_provider
YelpReview
p2445
(dp2446
g25
S'2.0'
p2447
sg27
g28
(S'\x07\xdb\x0b\x1d\x00\x00\x00\x00\x00\x00'
p2448
tp2449
Rp2450
sba(iyelp_data_provider
YelpReview
p2451
(dp2452
g25
S'4.0'
p2453
sg27
g28
(S'\x07\xdb\x06\x16\x00\x00\x00\x00\x00\x00'
p2454
tp2455
Rp2456
sba(iyelp_data_provider
YelpReview
p2457
(dp2458
g25
S'3.0'
p2459
sg27
g28
(S'\x07\xdb\n\x0c\x00\x00\x00\x00\x00\x00'
p2460
tp2461
Rp2462
sba(iyelp_data_provider
YelpReview
p2463
(dp2464
g25
S'2.0'
p2465
sg27
g28
(S'\x07\xdb\x07\x16\x00\x00\x00\x00\x00\x00'
p2466
tp2467
Rp2468
sba(iyelp_data_provider
YelpReview
p2469
(dp2470
g25
S'2.0'
p2471
sg27
g28
(S'\x07\xdb\x0b\n\x00\x00\x00\x00\x00\x00'
p2472
tp2473
Rp2474
sba(iyelp_data_provider
YelpReview
p2475
(dp2476
g25
S'3.0'
p2477
sg27
g28
(S'\x07\xdb\x04\x1c\x00\x00\x00\x00\x00\x00'
p2478
tp2479
Rp2480
sba(iyelp_data_provider
YelpReview
p2481
(dp2482
g25
S'5.0'
p2483
sg27
g28
(S'\x07\xdb\x06\x10\x00\x00\x00\x00\x00\x00'
p2484
tp2485
Rp2486
sbasg32
I01
sg33
VNY
p2487
sg35
F40.762699
sg36
I01
sg37
S'$$$'
p2488
sg39
VtLYvKy-KTS1iuDx9QWwoRw
p2489
sba(iyelp_data_provider
YelpBusiness
p2490
(dp2491
g5
S'restaurant'
p2492
sg6
VNew York
p2493
sg8
I46
sg9
VAstro Restaurant
p2494
sg11
V10019
p2495
sg13
Vhttp://www.yelp.com/biz/astro-restaurant-new-york
p2496
sg15
V1361 Ave of the Americas
p2497
sg17
F3.0
sg18
g19
sg20
F-73.9781614
sg21
(lp2498
(iyelp_data_provider
YelpReview
p2499
(dp2500
g25
S'4.0'
p2501
sg27
g28
(S'\x07\xdb\x0c\x02\x00\x00\x00\x00\x00\x00'
p2502
tp2503
Rp2504
sba(iyelp_data_provider
YelpReview
p2505
(dp2506
g25
S'2.0'
p2507
sg27
g28
(S'\x07\xdb\x0b\x1c\x00\x00\x00\x00\x00\x00'
p2508
tp2509
Rp2510
sba(iyelp_data_provider
YelpReview
p2511
(dp2512
g25
S'3.0'
p2513
sg27
g28
(S'\x07\xdb\x07\x1f\x00\x00\x00\x00\x00\x00'
p2514
tp2515
Rp2516
sba(iyelp_data_provider
YelpReview
p2517
(dp2518
g25
S'2.0'
p2519
sg27
g28
(S'\x07\xdb\x0b\x1d\x00\x00\x00\x00\x00\x00'
p2520
tp2521
Rp2522
sba(iyelp_data_provider
YelpReview
p2523
(dp2524
g25
S'1.0'
p2525
sg27
g28
(S'\x07\xdb\x0b\x1e\x00\x00\x00\x00\x00\x00'
p2526
tp2527
Rp2528
sba(iyelp_data_provider
YelpReview
p2529
(dp2530
g25
S'4.0'
p2531
sg27
g28
(S'\x07\xdb\x0b\r\x00\x00\x00\x00\x00\x00'
p2532
tp2533
Rp2534
sba(iyelp_data_provider
YelpReview
p2535
(dp2536
g25
S'1.0'
p2537
sg27
g28
(S'\x07\xdb\x05\x16\x00\x00\x00\x00\x00\x00'
p2538
tp2539
Rp2540
sba(iyelp_data_provider
YelpReview
p2541
(dp2542
g25
S'4.0'
p2543
sg27
g28
(S'\x07\xdb\x07\x1e\x00\x00\x00\x00\x00\x00'
p2544
tp2545
Rp2546
sba(iyelp_data_provider
YelpReview
p2547
(dp2548
g25
S'5.0'
p2549
sg27
g28
(S'\x07\xdb\x01\x15\x00\x00\x00\x00\x00\x00'
p2550
tp2551
Rp2552
sbasg32
I01
sg33
VNY
p2553
sg35
F40.7631912
sg36
I01
sg37
S'$$'
p2554
sg39
ViT_AIzQVbshA9WjW_vM9_g
p2555
sba(iyelp_data_provider
YelpBusiness
p2556
(dp2557
g5
S'restaurant'
p2558
sg6
VNew York
p2559
sg8
I64
sg9
VIse Japanese Restaurant
p2560
sg11
V10019
p2561
sg13
Vhttp://www.yelp.com/biz/ise-japanese-restaurant-new-york
p2562
sg15
V58 W 56th St
p2563
sg17
F3.5
sg18
g19
sg20
F-73.977131
sg21
(lp2564
(iyelp_data_provider
YelpReview
p2565
(dp2566
g25
S'3.0'
p2567
sg27
g28
(S'\x07\xdb\n\t\x00\x00\x00\x00\x00\x00'
p2568
tp2569
Rp2570
sba(iyelp_data_provider
YelpReview
p2571
(dp2572
g25
S'2.0'
p2573
sg27
g28
(S'\x07\xdb\n\x1d\x00\x00\x00\x00\x00\x00'
p2574
tp2575
Rp2576
sba(iyelp_data_provider
YelpReview
p2577
(dp2578
g25
S'2.0'
p2579
sg27
g28
(S'\x07\xdb\n\x05\x00\x00\x00\x00\x00\x00'
p2580
tp2581
Rp2582
sba(iyelp_data_provider
YelpReview
p2583
(dp2584
g25
S'5.0'
p2585
sg27
g28
(S'\x07\xdb\n\x16\x00\x00\x00\x00\x00\x00'
p2586
tp2587
Rp2588
sba(iyelp_data_provider
YelpReview
p2589
(dp2590
g25
S'4.0'
p2591
sg27
g28
(S'\x07\xdb\x01\x17\x00\x00\x00\x00\x00\x00'
p2592
tp2593
Rp2594
sba(iyelp_data_provider
YelpReview
p2595
(dp2596
g25
S'3.0'
p2597
sg27
g28
(S'\x07\xdb\x08\x19\x00\x00\x00\x00\x00\x00'
p2598
tp2599
Rp2600
sba(iyelp_data_provider
YelpReview
p2601
(dp2602
g25
S'4.0'
p2603
sg27
g28
(S'\x07\xdb\x03\x1c\x00\x00\x00\x00\x00\x00'
p2604
tp2605
Rp2606
sba(iyelp_data_provider
YelpReview
p2607
(dp2608
g25
S'4.0'
p2609
sg27
g28
(S'\x07\xdb\x05\x06\x00\x00\x00\x00\x00\x00'
p2610
tp2611
Rp2612
sba(iyelp_data_provider
YelpReview
p2613
(dp2614
g25
S'4.0'
p2615
sg27
g28
(S'\x07\xdb\x03\x0b\x00\x00\x00\x00\x00\x00'
p2616
tp2617
Rp2618
sba(iyelp_data_provider
YelpReview
p2619
(dp2620
g25
S'3.0'
p2621
sg27
g28
(S'\x07\xdb\x02\x02\x00\x00\x00\x00\x00\x00'
p2622
tp2623
Rp2624
sba(iyelp_data_provider
YelpReview
p2625
(dp2626
g25
S'4.0'
p2627
sg27
g28
(S'\x07\xdb\x02\x1c\x00\x00\x00\x00\x00\x00'
p2628
tp2629
Rp2630
sba(iyelp_data_provider
YelpReview
p2631
(dp2632
g25
S'5.0'
p2633
sg27
g28
(S'\x07\xdb\x03\x08\x00\x00\x00\x00\x00\x00'
p2634
tp2635
Rp2636
sbasg32
I01
sg33
VNY
p2637
sg35
F40.763167
sg36
I01
sg37
S'$$'
p2638
sg39
VD7TJSP0La1M6mqn1hefLWw
p2639
sba(iyelp_data_provider
YelpBusiness
p2640
(dp2641
g5
S'restaurant'
p2642
sg6
VManhattan
p2643
sg8
I1
sg9
VMichael's New York
p2644
sg11
V10019
p2645
sg13
Vhttp://www.yelp.com/biz/michaels-new-york-manhattan
p2646
sg15
V24 W 55th St
p2647
sg17
F2.0
sg18
g19
sg20
F-73.976223
sg21
(lp2648
sg32
I01
sg33
VNY
p2649
sg35
F40.76213
sg36
I01
sg39
VSnURMs-g5TZwQh53EauCgQ
p2650
sba(iyelp_data_provider
YelpBusiness
p2651
(dp2652
g5
S'restaurant'
p2653
sg6
VNew York
p2654
sg8
I176
sg9
VPazza Notte
p2655
sg11
V10019
p2656
sg13
Vhttp://www.yelp.com/biz/pazza-notte-new-york-2
p2657
sg15
V1375 Ave of the Americas
p2658
sg17
F3.5
sg18
g19
sg20
F-73.9778382
sg21
(lp2659
(iyelp_data_provider
YelpReview
p2660
(dp2661
g25
S'4.0'
p2662
sg27
g28
(S'\x07\xdb\n\x17\x00\x00\x00\x00\x00\x00'
p2663
tp2664
Rp2665
sba(iyelp_data_provider
YelpReview
p2666
(dp2667
g25
S'4.0'
p2668
sg27
g28
(S'\x07\xdb\n\x07\x00\x00\x00\x00\x00\x00'
p2669
tp2670
Rp2671
sba(iyelp_data_provider
YelpReview
p2672
(dp2673
g25
S'1.0'
p2674
sg27
g28
(S'\x07\xdb\x06\r\x00\x00\x00\x00\x00\x00'
p2675
tp2676
Rp2677
sba(iyelp_data_provider
YelpReview
p2678
(dp2679
g25
S'3.0'
p2680
sg27
g28
(S'\x07\xdb\t\x1d\x00\x00\x00\x00\x00\x00'
p2681
tp2682
Rp2683
sba(iyelp_data_provider
YelpReview
p2684
(dp2685
g25
S'4.0'
p2686
sg27
g28
(S'\x07\xdb\x0c\x06\x00\x00\x00\x00\x00\x00'
p2687
tp2688
Rp2689
sba(iyelp_data_provider
YelpReview
p2690
(dp2691
g25
S'3.0'
p2692
sg27
g28
(S'\x07\xdb\x04\x13\x00\x00\x00\x00\x00\x00'
p2693
tp2694
Rp2695
sba(iyelp_data_provider
YelpReview
p2696
(dp2697
g25
S'4.0'
p2698
sg27
g28
(S'\x07\xdb\x05\x02\x00\x00\x00\x00\x00\x00'
p2699
tp2700
Rp2701
sba(iyelp_data_provider
YelpReview
p2702
(dp2703
g25
S'4.0'
p2704
sg27
g28
(S'\x07\xdb\x03\x07\x00\x00\x00\x00\x00\x00'
p2705
tp2706
Rp2707
sba(iyelp_data_provider
YelpReview
p2708
(dp2709
g25
S'3.0'
p2710
sg27
g28
(S'\x07\xdb\x08\n\x00\x00\x00\x00\x00\x00'
p2711
tp2712
Rp2713
sba(iyelp_data_provider
YelpReview
p2714
(dp2715
g25
S'3.0'
p2716
sg27
g28
(S'\x07\xdb\x07\x0c\x00\x00\x00\x00\x00\x00'
p2717
tp2718
Rp2719
sba(iyelp_data_provider
YelpReview
p2720
(dp2721
g25
S'3.0'
p2722
sg27
g28
(S'\x07\xdb\x08\x05\x00\x00\x00\x00\x00\x00'
p2723
tp2724
Rp2725
sba(iyelp_data_provider
YelpReview
p2726
(dp2727
g25
S'3.0'
p2728
sg27
g28
(S'\x07\xdb\x05\x1e\x00\x00\x00\x00\x00\x00'
p2729
tp2730
Rp2731
sba(iyelp_data_provider
YelpReview
p2732
(dp2733
g25
S'3.0'
p2734
sg27
g28
(S'\x07\xdb\x04\x0e\x00\x00\x00\x00\x00\x00'
p2735
tp2736
Rp2737
sba(iyelp_data_provider
YelpReview
p2738
(dp2739
g25
S'4.0'
p2740
sg27
g28
(S'\x07\xdb\x0c\t\x00\x00\x00\x00\x00\x00'
p2741
tp2742
Rp2743
sba(iyelp_data_provider
YelpReview
p2744
(dp2745
g25
S'2.0'
p2746
sg27
g28
(S'\x07\xdb\t\x13\x00\x00\x00\x00\x00\x00'
p2747
tp2748
Rp2749
sba(iyelp_data_provider
YelpReview
p2750
(dp2751
g25
S'4.0'
p2752
sg27
g28
(S'\x07\xdb\x06\x0f\x00\x00\x00\x00\x00\x00'
p2753
tp2754
Rp2755
sba(iyelp_data_provider
YelpReview
p2756
(dp2757
g25
S'4.0'
p2758
sg27
g28
(S'\x07\xdb\x0c\x05\x00\x00\x00\x00\x00\x00'
p2759
tp2760
Rp2761
sba(iyelp_data_provider
YelpReview
p2762
(dp2763
g25
S'4.0'
p2764
sg27
g28
(S'\x07\xdb\n\n\x00\x00\x00\x00\x00\x00'
p2765
tp2766
Rp2767
sba(iyelp_data_provider
YelpReview
p2768
(dp2769
g25
S'5.0'
p2770
sg27
g28
(S'\x07\xdb\x0b\x1d\x00\x00\x00\x00\x00\x00'
p2771
tp2772
Rp2773
sba(iyelp_data_provider
YelpReview
p2774
(dp2775
g25
S'4.0'
p2776
sg27
g28
(S'\x07\xdb\x0b\x0b\x00\x00\x00\x00\x00\x00'
p2777
tp2778
Rp2779
sba(iyelp_data_provider
YelpReview
p2780
(dp2781
g25
S'5.0'
p2782
sg27
g28
(S'\x07\xdb\x08\x01\x00\x00\x00\x00\x00\x00'
p2783
tp2784
Rp2785
sba(iyelp_data_provider
YelpReview
p2786
(dp2787
g25
S'4.0'
p2788
sg27
g28
(S'\x07\xdb\x08\x1c\x00\x00\x00\x00\x00\x00'
p2789
tp2790
Rp2791
sba(iyelp_data_provider
YelpReview
p2792
(dp2793
g25
S'3.0'
p2794
sg27
g28
(S'\x07\xdb\x08\x17\x00\x00\x00\x00\x00\x00'
p2795
tp2796
Rp2797
sba(iyelp_data_provider
YelpReview
p2798
(dp2799
g25
S'4.0'
p2800
sg27
g28
(S'\x07\xdb\x06\x08\x00\x00\x00\x00\x00\x00'
p2801
tp2802
Rp2803
sba(iyelp_data_provider
YelpReview
p2804
(dp2805
g25
S'2.0'
p2806
sg27
g28
(S'\x07\xdb\x0b\x13\x00\x00\x00\x00\x00\x00'
p2807
tp2808
Rp2809
sba(iyelp_data_provider
YelpReview
p2810
(dp2811
g25
S'5.0'
p2812
sg27
g28
(S'\x07\xdb\x08\x13\x00\x00\x00\x00\x00\x00'
p2813
tp2814
Rp2815
sba(iyelp_data_provider
YelpReview
p2816
(dp2817
g25
S'4.0'
p2818
sg27
g28
(S'\x07\xdb\x05\r\x00\x00\x00\x00\x00\x00'
p2819
tp2820
Rp2821
sba(iyelp_data_provider
YelpReview
p2822
(dp2823
g25
S'4.0'
p2824
sg27
g28
(S'\x07\xdb\x05\x04\x00\x00\x00\x00\x00\x00'
p2825
tp2826
Rp2827
sba(iyelp_data_provider
YelpReview
p2828
(dp2829
g25
S'2.0'
p2830
sg27
g28
(S'\x07\xdb\t\x06\x00\x00\x00\x00\x00\x00'
p2831
tp2832
Rp2833
sba(iyelp_data_provider
YelpReview
p2834
(dp2835
g25
S'3.5'
p2836
sg27
g28
(S'\x07\xdb\x06\t\x00\x00\x00\x00\x00\x00'
p2837
tp2838
Rp2839
sba(iyelp_data_provider
YelpReview
p2840
(dp2841
g25
S'2.0'
p2842
sg27
g28
(S'\x07\xdb\x04\x0c\x00\x00\x00\x00\x00\x00'
p2843
tp2844
Rp2845
sba(iyelp_data_provider
YelpReview
p2846
(dp2847
g25
S'3.0'
p2848
sg27
g28
(S'\x07\xdb\x08\x01\x00\x00\x00\x00\x00\x00'
p2849
tp2850
Rp2851
sba(iyelp_data_provider
YelpReview
p2852
(dp2853
g25
S'5.0'
p2854
sg27
g28
(S'\x07\xdb\x03\x11\x00\x00\x00\x00\x00\x00'
p2855
tp2856
Rp2857
sba(iyelp_data_provider
YelpReview
p2858
(dp2859
g25
S'2.0'
p2860
sg27
g28
(S'\x07\xdb\x07\x13\x00\x00\x00\x00\x00\x00'
p2861
tp2862
Rp2863
sba(iyelp_data_provider
YelpReview
p2864
(dp2865
g25
S'3.0'
p2866
sg27
g28
(S'\x07\xdb\t\x15\x00\x00\x00\x00\x00\x00'
p2867
tp2868
Rp2869
sba(iyelp_data_provider
YelpReview
p2870
(dp2871
g25
S'3.0'
p2872
sg27
g28
(S'\x07\xdb\x06\t\x00\x00\x00\x00\x00\x00'
p2873
tp2874
Rp2875
sba(iyelp_data_provider
YelpReview
p2876
(dp2877
g25
S'2.0'
p2878
sg27
g28
(S'\x07\xdb\x02\x14\x00\x00\x00\x00\x00\x00'
p2879
tp2880
Rp2881
sba(iyelp_data_provider
YelpReview
p2882
(dp2883
g25
S'4.0'
p2884
sg27
g28
(S'\x07\xdb\x06\x16\x00\x00\x00\x00\x00\x00'
p2885
tp2886
Rp2887
sba(iyelp_data_provider
YelpReview
p2888
(dp2889
g25
S'4.0'
p2890
sg27
g28
(S'\x07\xdb\x05\x01\x00\x00\x00\x00\x00\x00'
p2891
tp2892
Rp2893
sba(iyelp_data_provider
YelpReview
p2894
(dp2895
g25
S'5.0'
p2896
sg27
g28
(S'\x07\xdb\x04\x04\x00\x00\x00\x00\x00\x00'
p2897
tp2898
Rp2899
sba(iyelp_data_provider
YelpReview
p2900
(dp2901
g25
S'4.0'
p2902
sg27
g28
(S'\x07\xdb\x0c\x05\x00\x00\x00\x00\x00\x00'
p2903
tp2904
Rp2905
sba(iyelp_data_provider
YelpReview
p2906
(dp2907
g25
S'4.0'
p2908
sg27
g28
(S'\x07\xdb\x0c\x0c\x00\x00\x00\x00\x00\x00'
p2909
tp2910
Rp2911
sba(iyelp_data_provider
YelpReview
p2912
(dp2913
g25
S'1.0'
p2914
sg27
g28
(S'\x07\xdb\x05\x0b\x00\x00\x00\x00\x00\x00'
p2915
tp2916
Rp2917
sba(iyelp_data_provider
YelpReview
p2918
(dp2919
g25
S'2.0'
p2920
sg27
g28
(S'\x07\xdb\x07\x1d\x00\x00\x00\x00\x00\x00'
p2921
tp2922
Rp2923
sba(iyelp_data_provider
YelpReview
p2924
(dp2925
g25
S'3.0'
p2926
sg27
g28
(S'\x07\xdb\x03\x13\x00\x00\x00\x00\x00\x00'
p2927
tp2928
Rp2929
sbasg32
I01
sg33
VNY
p2930
sg35
F40.7634529
sg36
I01
sg37
S'$$'
p2931
sg39
VjDIVPYpxQAk1HUAi0NIlQw
p2932
sba(iyelp_data_provider
YelpBusiness
p2933
(dp2934
g5
S'restaurant'
p2935
sg6
VNew York
p2936
sg8
I74
sg9
VCirco
p2937
sg11
V10019
p2938
sg13
Vhttp://www.yelp.com/biz/circo-new-york
p2939
sg15
V120 W 55th St
p2940
sg17
F3.5
sg18
g19
sg20
F-73.9790898
sg21
(lp2941
(iyelp_data_provider
YelpReview
p2942
(dp2943
g25
S'2.0'
p2944
sg27
g28
(S'\x07\xdb\x0c\x07\x00\x00\x00\x00\x00\x00'
p2945
tp2946
Rp2947
sba(iyelp_data_provider
YelpReview
p2948
(dp2949
g25
S'4.0'
p2950
sg27
g28
(S'\x07\xdb\t\x14\x00\x00\x00\x00\x00\x00'
p2951
tp2952
Rp2953
sba(iyelp_data_provider
YelpReview
p2954
(dp2955
g25
S'5.0'
p2956
sg27
g28
(S'\x07\xdb\x07\x03\x00\x00\x00\x00\x00\x00'
p2957
tp2958
Rp2959
sba(iyelp_data_provider
YelpReview
p2960
(dp2961
g25
S'4.0'
p2962
sg27
g28
(S'\x07\xdb\x06\x10\x00\x00\x00\x00\x00\x00'
p2963
tp2964
Rp2965
sba(iyelp_data_provider
YelpReview
p2966
(dp2967
g25
S'5.0'
p2968
sg27
g28
(S'\x07\xdb\x05\x13\x00\x00\x00\x00\x00\x00'
p2969
tp2970
Rp2971
sba(iyelp_data_provider
YelpReview
p2972
(dp2973
g25
S'4.0'
p2974
sg27
g28
(S'\x07\xdb\x07\x14\x00\x00\x00\x00\x00\x00'
p2975
tp2976
Rp2977
sba(iyelp_data_provider
YelpReview
p2978
(dp2979
g25
S'2.0'
p2980
sg27
g28
(S'\x07\xdb\x03\x1b\x00\x00\x00\x00\x00\x00'
p2981
tp2982
Rp2983
sba(iyelp_data_provider
YelpReview
p2984
(dp2985
g25
S'5.0'
p2986
sg27
g28
(S'\x07\xdb\x07\x0b\x00\x00\x00\x00\x00\x00'
p2987
tp2988
Rp2989
sba(iyelp_data_provider
YelpReview
p2990
(dp2991
g25
S'3.0'
p2992
sg27
g28
(S'\x07\xdb\x02\x0b\x00\x00\x00\x00\x00\x00'
p2993
tp2994
Rp2995
sba(iyelp_data_provider
YelpReview
p2996
(dp2997
g25
S'4.0'
p2998
sg27
g28
(S'\x07\xdb\x04\x1a\x00\x00\x00\x00\x00\x00'
p2999
tp3000
Rp3001
sba(iyelp_data_provider
YelpReview
p3002
(dp3003
g25
S'3.0'
p3004
sg27
g28
(S'\x07\xdb\x02\x17\x00\x00\x00\x00\x00\x00'
p3005
tp3006
Rp3007
sba(iyelp_data_provider
YelpReview
p3008
(dp3009
g25
S'3.0'
p3010
sg27
g28
(S'\x07\xdb\t\x1a\x00\x00\x00\x00\x00\x00'
p3011
tp3012
Rp3013
sba(iyelp_data_provider
YelpReview
p3014
(dp3015
g25
S'3.0'
p3016
sg27
g28
(S'\x07\xdb\t\x1b\x00\x00\x00\x00\x00\x00'
p3017
tp3018
Rp3019
sba(iyelp_data_provider
YelpReview
p3020
(dp3021
g25
S'4.0'
p3022
sg27
g28
(S'\x07\xdb\x0b\x12\x00\x00\x00\x00\x00\x00'
p3023
tp3024
Rp3025
sba(iyelp_data_provider
YelpReview
p3026
(dp3027
g25
S'5.0'
p3028
sg27
g28
(S'\x07\xdb\x01\x04\x00\x00\x00\x00\x00\x00'
p3029
tp3030
Rp3031
sba(iyelp_data_provider
YelpReview
p3032
(dp3033
g25
S'3.0'
p3034
sg27
g28
(S'\x07\xdb\n\x1b\x00\x00\x00\x00\x00\x00'
p3035
tp3036
Rp3037
sba(iyelp_data_provider
YelpReview
p3038
(dp3039
g25
S'4.0'
p3040
sg27
g28
(S'\x07\xdb\x06\t\x00\x00\x00\x00\x00\x00'
p3041
tp3042
Rp3043
sba(iyelp_data_provider
YelpReview
p3044
(dp3045
g25
S'3.0'
p3046
sg27
g28
(S'\x07\xdb\t\t\x00\x00\x00\x00\x00\x00'
p3047
tp3048
Rp3049
sba(iyelp_data_provider
YelpReview
p3050
(dp3051
g25
S'3.0'
p3052
sg27
g28
(S'\x07\xdb\x02\x02\x00\x00\x00\x00\x00\x00'
p3053
tp3054
Rp3055
sba(iyelp_data_provider
YelpReview
p3056
(dp3057
g25
S'4.0'
p3058
sg27
g28
(S'\x07\xdb\x04\x0c\x00\x00\x00\x00\x00\x00'
p3059
tp3060
Rp3061
sba(iyelp_data_provider
YelpReview
p3062
(dp3063
g25
S'4.0'
p3064
sg27
g28
(S'\x07\xdb\x02\x18\x00\x00\x00\x00\x00\x00'
p3065
tp3066
Rp3067
sba(iyelp_data_provider
YelpReview
p3068
(dp3069
g25
S'4.0'
p3070
sg27
g28
(S'\x07\xdb\x01\x19\x00\x00\x00\x00\x00\x00'
p3071
tp3072
Rp3073
sba(iyelp_data_provider
YelpReview
p3074
(dp3075
g25
S'2.0'
p3076
sg27
g28
(S'\x07\xdb\x07\r\x00\x00\x00\x00\x00\x00'
p3077
tp3078
Rp3079
sba(iyelp_data_provider
YelpReview
p3080
(dp3081
g25
S'4.0'
p3082
sg27
g28
(S'\x07\xdb\x07\x1c\x00\x00\x00\x00\x00\x00'
p3083
tp3084
Rp3085
sbasg32
I01
sg33
VNY
p3086
sg35
F40.7634261
sg36
I01
sg37
S'$$$'
p3087
sg39
VTyGm3BmSDAeaQXkxQb3v1g
p3088
sba(iyelp_data_provider
YelpBusiness
p3089
(dp3090
g5
S'restaurant'
p3091
sg6
VNew York
p3092
sg8
I60
sg9
VCer-t
p3093
sg11
V10019
p3094
sg13
Vhttp://www.yelp.com/biz/cer-t%C3%A9-new-york-2
p3095
sg15
V20 W 55th St
p3096
sg17
F3.5
sg18
g19
sg20
F-73.9761093
sg21
(lp3097
(iyelp_data_provider
YelpReview
p3098
(dp3099
g25
S'4.0'
p3100
sg27
g28
(S'\x07\xdb\x08\x0b\x00\x00\x00\x00\x00\x00'
p3101
tp3102
Rp3103
sba(iyelp_data_provider
YelpReview
p3104
(dp3105
g25
S'4.0'
p3106
sg27
g28
(S'\x07\xdb\x08\x0c\x00\x00\x00\x00\x00\x00'
p3107
tp3108
Rp3109
sba(iyelp_data_provider
YelpReview
p3110
(dp3111
g25
S'5.0'
p3112
sg27
g28
(S'\x07\xdb\t\x0e\x00\x00\x00\x00\x00\x00'
p3113
tp3114
Rp3115
sba(iyelp_data_provider
YelpReview
p3116
(dp3117
g25
S'3.0'
p3118
sg27
g28
(S'\x07\xdb\x0b\t\x00\x00\x00\x00\x00\x00'
p3119
tp3120
Rp3121
sba(iyelp_data_provider
YelpReview
p3122
(dp3123
g25
S'3.0'
p3124
sg27
g28
(S'\x07\xdb\x06\x03\x00\x00\x00\x00\x00\x00'
p3125
tp3126
Rp3127
sba(iyelp_data_provider
YelpReview
p3128
(dp3129
g25
S'5.0'
p3130
sg27
g28
(S'\x07\xdb\x08\x04\x00\x00\x00\x00\x00\x00'
p3131
tp3132
Rp3133
sba(iyelp_data_provider
YelpReview
p3134
(dp3135
g25
S'5.0'
p3136
sg27
g28
(S'\x07\xdb\x07\x13\x00\x00\x00\x00\x00\x00'
p3137
tp3138
Rp3139
sba(iyelp_data_provider
YelpReview
p3140
(dp3141
g25
S'4.0'
p3142
sg27
g28
(S'\x07\xdb\x06\x16\x00\x00\x00\x00\x00\x00'
p3143
tp3144
Rp3145
sba(iyelp_data_provider
YelpReview
p3146
(dp3147
g25
S'4.0'
p3148
sg27
g28
(S'\x07\xdb\x02\n\x00\x00\x00\x00\x00\x00'
p3149
tp3150
Rp3151
sba(iyelp_data_provider
YelpReview
p3152
(dp3153
g25
S'4.0'
p3154
sg27
g28
(S'\x07\xdb\x01\x17\x00\x00\x00\x00\x00\x00'
p3155
tp3156
Rp3157
sba(iyelp_data_provider
YelpReview
p3158
(dp3159
g25
S'3.0'
p3160
sg27
g28
(S'\x07\xdb\x02\x15\x00\x00\x00\x00\x00\x00'
p3161
tp3162
Rp3163
sba(iyelp_data_provider
YelpReview
p3164
(dp3165
g25
S'4.0'
p3166
sg27
g28
(S'\x07\xdb\x05\x1a\x00\x00\x00\x00\x00\x00'
p3167
tp3168
Rp3169
sba(iyelp_data_provider
YelpReview
p3170
(dp3171
g25
S'5.0'
p3172
sg27
g28
(S'\x07\xdb\x08\x03\x00\x00\x00\x00\x00\x00'
p3173
tp3174
Rp3175
sba(iyelp_data_provider
YelpReview
p3176
(dp3177
g25
S'4.0'
p3178
sg27
g28
(S'\x07\xdb\x01\x19\x00\x00\x00\x00\x00\x00'
p3179
tp3180
Rp3181
sba(iyelp_data_provider
YelpReview
p3182
(dp3183
g25
S'4.0'
p3184
sg27
g28
(S'\x07\xdb\x07\x0b\x00\x00\x00\x00\x00\x00'
p3185
tp3186
Rp3187
sba(iyelp_data_provider
YelpReview
p3188
(dp3189
g25
S'2.0'
p3190
sg27
g28
(S'\x07\xdb\x08\x04\x00\x00\x00\x00\x00\x00'
p3191
tp3192
Rp3193
sba(iyelp_data_provider
YelpReview
p3194
(dp3195
g25
S'3.0'
p3196
sg27
g28
(S'\x07\xdb\x04\x13\x00\x00\x00\x00\x00\x00'
p3197
tp3198
Rp3199
sbasg32
I01
sg33
VNY
p3200
sg35
F40.7620528
sg36
I01
sg37
S'$$'
p3201
sg39
VmmO9muETmuX4Noyitqw8xQ
p3202
sba(iyelp_data_provider
YelpBusiness
p3203
(dp3204
g5
S'restaurant'
p3205
sg6
VNew York
p3206
sg8
I68
sg9
VChom Chom
p3207
sg11
V10019
p3208
sg13
Vhttp://www.yelp.com/biz/chom-chom-new-york
p3209
sg15
V40 W 56th S
p3210
sg17
F3.0
sg18
g19
sg20
F-73.9765369
sg21
(lp3211
(iyelp_data_provider
YelpReview
p3212
(dp3213
g25
S'2.0'
p3214
sg27
g28
(S'\x07\xdb\x07\x1d\x00\x00\x00\x00\x00\x00'
p3215
tp3216
Rp3217
sba(iyelp_data_provider
YelpReview
p3218
(dp3219
g25
S'4.0'
p3220
sg27
g28
(S'\x07\xdb\x04\x1b\x00\x00\x00\x00\x00\x00'
p3221
tp3222
Rp3223
sba(iyelp_data_provider
YelpReview
p3224
(dp3225
g25
S'2.0'
p3226
sg27
g28
(S'\x07\xdb\x06\x05\x00\x00\x00\x00\x00\x00'
p3227
tp3228
Rp3229
sba(iyelp_data_provider
YelpReview
p3230
(dp3231
g25
S'4.0'
p3232
sg27
g28
(S'\x07\xdb\x06\x05\x00\x00\x00\x00\x00\x00'
p3233
tp3234
Rp3235
sba(iyelp_data_provider
YelpReview
p3236
(dp3237
g25
S'2.0'
p3238
sg27
g28
(S'\x07\xdb\t\x01\x00\x00\x00\x00\x00\x00'
p3239
tp3240
Rp3241
sba(iyelp_data_provider
YelpReview
p3242
(dp3243
g25
S'3.0'
p3244
sg27
g28
(S'\x07\xdb\x02\x06\x00\x00\x00\x00\x00\x00'
p3245
tp3246
Rp3247
sba(iyelp_data_provider
YelpReview
p3248
(dp3249
g25
S'4.0'
p3250
sg27
g28
(S'\x07\xdb\x0c\x05\x00\x00\x00\x00\x00\x00'
p3251
tp3252
Rp3253
sba(iyelp_data_provider
YelpReview
p3254
(dp3255
g25
S'5.0'
p3256
sg27
g28
(S'\x07\xdb\x07\x12\x00\x00\x00\x00\x00\x00'
p3257
tp3258
Rp3259
sba(iyelp_data_provider
YelpReview
p3260
(dp3261
g25
S'4.0'
p3262
sg27
g28
(S'\x07\xdb\x02\x05\x00\x00\x00\x00\x00\x00'
p3263
tp3264
Rp3265
sba(iyelp_data_provider
YelpReview
p3266
(dp3267
g25
S'3.0'
p3268
sg27
g28
(S'\x07\xdb\x03\x1b\x00\x00\x00\x00\x00\x00'
p3269
tp3270
Rp3271
sba(iyelp_data_provider
YelpReview
p3272
(dp3273
g25
S'2.0'
p3274
sg27
g28
(S'\x07\xdb\t\x05\x00\x00\x00\x00\x00\x00'
p3275
tp3276
Rp3277
sba(iyelp_data_provider
YelpReview
p3278
(dp3279
g25
S'5.0'
p3280
sg27
g28
(S'\x07\xdb\t\x10\x00\x00\x00\x00\x00\x00'
p3281
tp3282
Rp3283
sba(iyelp_data_provider
YelpReview
p3284
(dp3285
g25
S'3.0'
p3286
sg27
g28
(S'\x07\xdb\x07\x14\x00\x00\x00\x00\x00\x00'
p3287
tp3288
Rp3289
sba(iyelp_data_provider
YelpReview
p3290
(dp3291
g25
S'1.0'
p3292
sg27
g28
(S'\x07\xdb\x04\x15\x00\x00\x00\x00\x00\x00'
p3293
tp3294
Rp3295
sba(iyelp_data_provider
YelpReview
p3296
(dp3297
g25
S'2.0'
p3298
sg27
g28
(S'\x07\xdb\x03\x1b\x00\x00\x00\x00\x00\x00'
p3299
tp3300
Rp3301
sba(iyelp_data_provider
YelpReview
p3302
(dp3303
g25
S'4.0'
p3304
sg27
g28
(S'\x07\xdb\x01\x07\x00\x00\x00\x00\x00\x00'
p3305
tp3306
Rp3307
sba(iyelp_data_provider
YelpReview
p3308
(dp3309
g25
S'4.0'
p3310
sg27
g28
(S'\x07\xdb\x08\x18\x00\x00\x00\x00\x00\x00'
p3311
tp3312
Rp3313
sba(iyelp_data_provider
YelpReview
p3314
(dp3315
g25
S'4.0'
p3316
sg27
g28
(S'\x07\xdb\x05\x06\x00\x00\x00\x00\x00\x00'
p3317
tp3318
Rp3319
sba(iyelp_data_provider
YelpReview
p3320
(dp3321
g25
S'3.0'
p3322
sg27
g28
(S'\x07\xdb\x05\x13\x00\x00\x00\x00\x00\x00'
p3323
tp3324
Rp3325
sba(iyelp_data_provider
YelpReview
p3326
(dp3327
g25
S'1.0'
p3328
sg27
g28
(S'\x07\xdb\x06\x05\x00\x00\x00\x00\x00\x00'
p3329
tp3330
Rp3331
sba(iyelp_data_provider
YelpReview
p3332
(dp3333
g25
S'2.0'
p3334
sg27
g28
(S'\x07\xdb\x05\x0e\x00\x00\x00\x00\x00\x00'
p3335
tp3336
Rp3337
sba(iyelp_data_provider
YelpReview
p3338
(dp3339
g25
S'1.0'
p3340
sg27
g28
(S'\x07\xdb\x03\r\x00\x00\x00\x00\x00\x00'
p3341
tp3342
Rp3343
sba(iyelp_data_provider
YelpReview
p3344
(dp3345
g25
S'4.0'
p3346
sg27
g28
(S'\x07\xdb\x03\r\x00\x00\x00\x00\x00\x00'
p3347
tp3348
Rp3349
sba(iyelp_data_provider
YelpReview
p3350
(dp3351
g25
S'3.0'
p3352
sg27
g28
(S'\x07\xdb\x06\x08\x00\x00\x00\x00\x00\x00'
p3353
tp3354
Rp3355
sba(iyelp_data_provider
YelpReview
p3356
(dp3357
g25
S'3.0'
p3358
sg27
g28
(S'\x07\xdb\x06\x06\x00\x00\x00\x00\x00\x00'
p3359
tp3360
Rp3361
sba(iyelp_data_provider
YelpReview
p3362
(dp3363
g25
S'4.0'
p3364
sg27
g28
(S'\x07\xdb\x06\x04\x00\x00\x00\x00\x00\x00'
p3365
tp3366
Rp3367
sba(iyelp_data_provider
YelpReview
p3368
(dp3369
g25
S'3.0'
p3370
sg27
g28
(S'\x07\xdb\x05\x1f\x00\x00\x00\x00\x00\x00'
p3371
tp3372
Rp3373
sba(iyelp_data_provider
YelpReview
p3374
(dp3375
g25
S'3.0'
p3376
sg27
g28
(S'\x07\xdb\x02\x14\x00\x00\x00\x00\x00\x00'
p3377
tp3378
Rp3379
sbasg32
I01
sg33
VNY
p3380
sg35
F40.762916
sg36
I01
sg37
S'$$'
p3381
sg39
Vb9W9ABI_d5R74FL_ZIDVxQ
p3382
sba(iyelp_data_provider
YelpBusiness
p3383
(dp3384
g5
S'restaurant'
p3385
sg6
VNew York
p3386
sg8
I11
sg9
VMurals On 54
p3387
sg11
V10019
p3388
sg13
Vhttp://www.yelp.com/biz/murals-on-54-new-york-2
p3389
sg15
V63 W 54th St
p3390
sg17
F2.5
sg18
g19
sg20
F-73.9782218
sg21
(lp3391
(iyelp_data_provider
YelpReview
p3392
(dp3393
g25
S'4.0'
p3394
sg27
g28
(S'\x07\xdb\x0c\x06\x00\x00\x00\x00\x00\x00'
p3395
tp3396
Rp3397
sba(iyelp_data_provider
YelpReview
p3398
(dp3399
g25
S'1.0'
p3400
sg27
g28
(S'\x07\xdb\x0b\x18\x00\x00\x00\x00\x00\x00'
p3401
tp3402
Rp3403
sba(iyelp_data_provider
YelpReview
p3404
(dp3405
g25
S'2.0'
p3406
sg27
g28
(S'\x07\xdb\x01\x19\x00\x00\x00\x00\x00\x00'
p3407
tp3408
Rp3409
sbasg32
I01
sg33
VNY
p3410
sg35
F40.7622403
sg36
I01
sg37
S'$$'
p3411
sg39
Vkr9FFwsZ0uNxNEJTfHu3_g
p3412
sba(iyelp_data_provider
YelpBusiness
p3413
(dp3414
g5
S'restaurant'
p3415
sg6
VNew York
p3416
sg8
I39
sg9
VThe Great American Health Bar
p3417
sg11
V10019
p3418
sg13
Vhttp://www.yelp.com/biz/the-great-american-health-bar-new-york
p3419
sg15
V35 W 57th St
p3420
sg17
F2.5
sg18
g19
sg20
F-73.9759481
sg21
(lp3421
(iyelp_data_provider
YelpReview
p3422
(dp3423
g25
S'1.0'
p3424
sg27
g28
(S'\x07\xdb\x02\x13\x00\x00\x00\x00\x00\x00'
p3425
tp3426
Rp3427
sba(iyelp_data_provider
YelpReview
p3428
(dp3429
g25
S'1.0'
p3430
sg27
g28
(S'\x07\xdb\x06\x18\x00\x00\x00\x00\x00\x00'
p3431
tp3432
Rp3433
sba(iyelp_data_provider
YelpReview
p3434
(dp3435
g25
S'3.0'
p3436
sg27
g28
(S'\x07\xdb\x02\x1a\x00\x00\x00\x00\x00\x00'
p3437
tp3438
Rp3439
sba(iyelp_data_provider
YelpReview
p3440
(dp3441
g25
S'4.0'
p3442
sg27
g28
(S'\x07\xdb\x08\x08\x00\x00\x00\x00\x00\x00'
p3443
tp3444
Rp3445
sba(iyelp_data_provider
YelpReview
p3446
(dp3447
g25
S'2.0'
p3448
sg27
g28
(S'\x07\xdb\x0b\x1b\x00\x00\x00\x00\x00\x00'
p3449
tp3450
Rp3451
sba(iyelp_data_provider
YelpReview
p3452
(dp3453
g25
S'1.0'
p3454
sg27
g28
(S'\x07\xdb\x05\x01\x00\x00\x00\x00\x00\x00'
p3455
tp3456
Rp3457
sbasg32
I01
sg33
VNY
p3458
sg35
F40.7638196
sg36
I01
sg37
S'$$'
p3459
sg39
VgDIxUaEpdwrU8_5MqvmP2Q
p3460
sba(iyelp_data_provider
YelpBusiness
p3461
(dp3462
g5
S'restaurant'
p3463
sg6
VNew York
p3464
sg8
I17
sg9
VIl Tinello Ristorante
p3465
sg11
V10019
p3466
sg13
Vhttp://www.yelp.com/biz/il-tinello-ristorante-new-york
p3467
sg15
V16 W 56th St
p3468
sg17
F4.5
sg18
g19
sg20
F-73.975671
sg21
(lp3469
(iyelp_data_provider
YelpReview
p3470
(dp3471
g25
S'4.0'
p3472
sg27
g28
(S'\x07\xdb\x02\x07\x00\x00\x00\x00\x00\x00'
p3473
tp3474
Rp3475
sba(iyelp_data_provider
YelpReview
p3476
(dp3477
g25
S'4.0'
p3478
sg27
g28
(S'\x07\xdb\n\x0c\x00\x00\x00\x00\x00\x00'
p3479
tp3480
Rp3481
sba(iyelp_data_provider
YelpReview
p3482
(dp3483
g25
S'4.0'
p3484
sg27
g28
(S'\x07\xdb\x01\x15\x00\x00\x00\x00\x00\x00'
p3485
tp3486
Rp3487
sbasg32
I01
sg33
VNY
p3488
sg35
F40.7625529
sg36
I01
sg37
S'$$$$'
p3489
sg39
VhzPBADaUBQEL30MGrvKsww
p3490
sba(iyelp_data_provider
YelpBusiness
p3491
(dp3492
g5
S'restaurant'
p3493
sg6
VNew York
p3494
sg8
I80
sg9
VIl Corso
p3495
sg11
V10019
p3496
sg13
Vhttp://www.yelp.com/biz/il-corso-new-york
p3497
sg15
V54 W 55th St
p3498
sg17
F4.0
sg18
g19
sg20
F-73.9771962
sg21
(lp3499
(iyelp_data_provider
YelpReview
p3500
(dp3501
g25
S'4.0'
p3502
sg27
g28
(S'\x07\xdb\x0c\x0b\x00\x00\x00\x00\x00\x00'
p3503
tp3504
Rp3505
sba(iyelp_data_provider
YelpReview
p3506
(dp3507
g25
S'3.0'
p3508
sg27
g28
(S'\x07\xdb\x0c\x0c\x00\x00\x00\x00\x00\x00'
p3509
tp3510
Rp3511
sba(iyelp_data_provider
YelpReview
p3512
(dp3513
g25
S'2.0'
p3514
sg27
g28
(S'\x07\xdb\x0b\x12\x00\x00\x00\x00\x00\x00'
p3515
tp3516
Rp3517
sba(iyelp_data_provider
YelpReview
p3518
(dp3519
g25
S'1.0'
p3520
sg27
g28
(S'\x07\xdb\x06\x10\x00\x00\x00\x00\x00\x00'
p3521
tp3522
Rp3523
sba(iyelp_data_provider
YelpReview
p3524
(dp3525
g25
S'4.0'
p3526
sg27
g28
(S'\x07\xdb\x08\x17\x00\x00\x00\x00\x00\x00'
p3527
tp3528
Rp3529
sba(iyelp_data_provider
YelpReview
p3530
(dp3531
g25
S'5.0'
p3532
sg27
g28
(S'\x07\xdb\n\x02\x00\x00\x00\x00\x00\x00'
p3533
tp3534
Rp3535
sba(iyelp_data_provider
YelpReview
p3536
(dp3537
g25
S'3.0'
p3538
sg27
g28
(S'\x07\xdb\x06\x17\x00\x00\x00\x00\x00\x00'
p3539
tp3540
Rp3541
sba(iyelp_data_provider
YelpReview
p3542
(dp3543
g25
S'3.0'
p3544
sg27
g28
(S'\x07\xdb\n\x06\x00\x00\x00\x00\x00\x00'
p3545
tp3546
Rp3547
sba(iyelp_data_provider
YelpReview
p3548
(dp3549
g25
S'4.0'
p3550
sg27
g28
(S'\x07\xdb\x06\x16\x00\x00\x00\x00\x00\x00'
p3551
tp3552
Rp3553
sba(iyelp_data_provider
YelpReview
p3554
(dp3555
g25
S'3.0'
p3556
sg27
g28
(S'\x07\xdb\x03\x1e\x00\x00\x00\x00\x00\x00'
p3557
tp3558
Rp3559
sba(iyelp_data_provider
YelpReview
p3560
(dp3561
g25
S'5.0'
p3562
sg27
g28
(S'\x07\xdb\x08\x0e\x00\x00\x00\x00\x00\x00'
p3563
tp3564
Rp3565
sba(iyelp_data_provider
YelpReview
p3566
(dp3567
g25
S'4.0'
p3568
sg27
g28
(S'\x07\xdb\x0c\x06\x00\x00\x00\x00\x00\x00'
p3569
tp3570
Rp3571
sba(iyelp_data_provider
YelpReview
p3572
(dp3573
g25
S'4.0'
p3574
sg27
g28
(S'\x07\xdb\x05\x0b\x00\x00\x00\x00\x00\x00'
p3575
tp3576
Rp3577
sba(iyelp_data_provider
YelpReview
p3578
(dp3579
g25
S'4.0'
p3580
sg27
g28
(S'\x07\xdb\x07\x0c\x00\x00\x00\x00\x00\x00'
p3581
tp3582
Rp3583
sba(iyelp_data_provider
YelpReview
p3584
(dp3585
g25
S'5.0'
p3586
sg27
g28
(S'\x07\xdb\x0b\x10\x00\x00\x00\x00\x00\x00'
p3587
tp3588
Rp3589
sba(iyelp_data_provider
YelpReview
p3590
(dp3591
g25
S'4.0'
p3592
sg27
g28
(S'\x07\xdb\n\x03\x00\x00\x00\x00\x00\x00'
p3593
tp3594
Rp3595
sba(iyelp_data_provider
YelpReview
p3596
(dp3597
g25
S'4.0'
p3598
sg27
g28
(S'\x07\xdb\x07\x04\x00\x00\x00\x00\x00\x00'
p3599
tp3600
Rp3601
sba(iyelp_data_provider
YelpReview
p3602
(dp3603
g25
S'4.0'
p3604
sg27
g28
(S'\x07\xdb\x08\x14\x00\x00\x00\x00\x00\x00'
p3605
tp3606
Rp3607
sba(iyelp_data_provider
YelpReview
p3608
(dp3609
g25
S'5.0'
p3610
sg27
g28
(S'\x07\xdb\x05\x1e\x00\x00\x00\x00\x00\x00'
p3611
tp3612
Rp3613
sba(iyelp_data_provider
YelpReview
p3614
(dp3615
g25
S'4.0'
p3616
sg27
g28
(S'\x07\xdb\x04\t\x00\x00\x00\x00\x00\x00'
p3617
tp3618
Rp3619
sba(iyelp_data_provider
YelpReview
p3620
(dp3621
g25
S'3.0'
p3622
sg27
g28
(S'\x07\xdb\x05\x0b\x00\x00\x00\x00\x00\x00'
p3623
tp3624
Rp3625
sba(iyelp_data_provider
YelpReview
p3626
(dp3627
g25
S'5.0'
p3628
sg27
g28
(S'\x07\xdb\x04\x13\x00\x00\x00\x00\x00\x00'
p3629
tp3630
Rp3631
sba(iyelp_data_provider
YelpReview
p3632
(dp3633
g25
S'5.0'
p3634
sg27
g28
(S'\x07\xdb\n\x0e\x00\x00\x00\x00\x00\x00'
p3635
tp3636
Rp3637
sba(iyelp_data_provider
YelpReview
p3638
(dp3639
g25
S'4.0'
p3640
sg27
g28
(S'\x07\xdb\x0b\x0e\x00\x00\x00\x00\x00\x00'
p3641
tp3642
Rp3643
sba(iyelp_data_provider
YelpReview
p3644
(dp3645
g25
S'2.0'
p3646
sg27
g28
(S'\x07\xdb\x03\x05\x00\x00\x00\x00\x00\x00'
p3647
tp3648
Rp3649
sba(iyelp_data_provider
YelpReview
p3650
(dp3651
g25
S'4.0'
p3652
sg27
g28
(S'\x07\xdb\x01\x12\x00\x00\x00\x00\x00\x00'
p3653
tp3654
Rp3655
sba(iyelp_data_provider
YelpReview
p3656
(dp3657
g25
S'5.0'
p3658
sg27
g28
(S'\x07\xdb\n\x17\x00\x00\x00\x00\x00\x00'
p3659
tp3660
Rp3661
sba(iyelp_data_provider
YelpReview
p3662
(dp3663
g25
S'5.0'
p3664
sg27
g28
(S'\x07\xdb\t\x1b\x00\x00\x00\x00\x00\x00'
p3665
tp3666
Rp3667
sba(iyelp_data_provider
YelpReview
p3668
(dp3669
g25
S'5.0'
p3670
sg27
g28
(S'\x07\xdb\x05\x19\x00\x00\x00\x00\x00\x00'
p3671
tp3672
Rp3673
sba(iyelp_data_provider
YelpReview
p3674
(dp3675
g25
S'5.0'
p3676
sg27
g28
(S'\x07\xdb\x02\x0e\x00\x00\x00\x00\x00\x00'
p3677
tp3678
Rp3679
sbasg32
I01
sg33
VNY
p3680
sg35
F40.7625404
sg36
I01
sg37
S'$$$'
p3681
sg39
VJLpEKUYAtzBRQwsUL3RPIA
p3682
sba(iyelp_data_provider
YelpBusiness
p3683
(dp3684
g5
S'restaurant'
p3685
sg6
VNew York
p3686
sg8
I62
sg9
VSushiya Japanese Restaurant
p3687
sg11
V10019
p3688
sg13
Vhttp://www.yelp.com/biz/sushiya-japanese-restaurant-new-york
p3689
sg15
V28 W 56th St
p3690
sg17
F3.5
sg18
g19
sg20
F-73.9759959
sg21
(lp3691
(iyelp_data_provider
YelpReview
p3692
(dp3693
g25
S'1.0'
p3694
sg27
g28
(S'\x07\xdb\n\r\x00\x00\x00\x00\x00\x00'
p3695
tp3696
Rp3697
sba(iyelp_data_provider
YelpReview
p3698
(dp3699
g25
S'2.0'
p3700
sg27
g28
(S'\x07\xdb\x03\x0b\x00\x00\x00\x00\x00\x00'
p3701
tp3702
Rp3703
sba(iyelp_data_provider
YelpReview
p3704
(dp3705
g25
S'4.0'
p3706
sg27
g28
(S'\x07\xdb\x02\x0b\x00\x00\x00\x00\x00\x00'
p3707
tp3708
Rp3709
sba(iyelp_data_provider
YelpReview
p3710
(dp3711
g25
S'4.0'
p3712
sg27
g28
(S'\x07\xdb\x03\x0b\x00\x00\x00\x00\x00\x00'
p3713
tp3714
Rp3715
sba(iyelp_data_provider
YelpReview
p3716
(dp3717
g25
S'2.0'
p3718
sg27
g28
(S'\x07\xdb\x07\x1f\x00\x00\x00\x00\x00\x00'
p3719
tp3720
Rp3721
sba(iyelp_data_provider
YelpReview
p3722
(dp3723
g25
S'4.0'
p3724
sg27
g28
(S'\x07\xdb\x01\x13\x00\x00\x00\x00\x00\x00'
p3725
tp3726
Rp3727
sbasg32
I01
sg33
VNY
p3728
sg35
F40.7628315
sg36
I01
sg37
S'$$'
p3729
sg39
Vfz6InLkB0FBkrXB0FiCwLg
p3730
sba(iyelp_data_provider
YelpBusiness
p3731
(dp3732
g5
S'restaurant'
p3733
sg6
VNew York
p3734
sg8
I187
sg9
VZibetto Espresso Bar
p3735
sg11
V10019
p3736
sg13
Vhttp://www.yelp.com/biz/zibetto-espresso-bar-new-york
p3737
sg15
V1385 6th Ave
p3738
sg17
F4.0
sg18
g19
sg20
F-73.9780335
sg21
(lp3739
(iyelp_data_provider
YelpReview
p3740
(dp3741
g25
S'5.0'
p3742
sg27
g28
(S'\x07\xdb\n\x14\x00\x00\x00\x00\x00\x00'
p3743
tp3744
Rp3745
sba(iyelp_data_provider
YelpReview
p3746
(dp3747
g25
S'4.0'
p3748
sg27
g28
(S'\x07\xdb\n\x19\x00\x00\x00\x00\x00\x00'
p3749
tp3750
Rp3751
sba(iyelp_data_provider
YelpReview
p3752
(dp3753
g25
S'5.0'
p3754
sg27
g28
(S'\x07\xdb\x05\x1a\x00\x00\x00\x00\x00\x00'
p3755
tp3756
Rp3757
sba(iyelp_data_provider
YelpReview
p3758
(dp3759
g25
S'5.0'
p3760
sg27
g28
(S'\x07\xdb\x05\x03\x00\x00\x00\x00\x00\x00'
p3761
tp3762
Rp3763
sba(iyelp_data_provider
YelpReview
p3764
(dp3765
g25
S'5.0'
p3766
sg27
g28
(S'\x07\xdb\n\x13\x00\x00\x00\x00\x00\x00'
p3767
tp3768
Rp3769
sba(iyelp_data_provider
YelpReview
p3770
(dp3771
g25
S'5.0'
p3772
sg27
g28
(S'\x07\xdb\x02\x18\x00\x00\x00\x00\x00\x00'
p3773
tp3774
Rp3775
sba(iyelp_data_provider
YelpReview
p3776
(dp3777
g25
S'5.0'
p3778
sg27
g28
(S'\x07\xdb\x01\x18\x00\x00\x00\x00\x00\x00'
p3779
tp3780
Rp3781
sba(iyelp_data_provider
YelpReview
p3782
(dp3783
g25
S'3.0'
p3784
sg27
g28
(S'\x07\xdb\x06\x1e\x00\x00\x00\x00\x00\x00'
p3785
tp3786
Rp3787
sba(iyelp_data_provider
YelpReview
p3788
(dp3789
g25
S'4.0'
p3790
sg27
g28
(S'\x07\xdb\t\x0e\x00\x00\x00\x00\x00\x00'
p3791
tp3792
Rp3793
sba(iyelp_data_provider
YelpReview
p3794
(dp3795
g25
S'5.0'
p3796
sg27
g28
(S'\x07\xdb\n\x19\x00\x00\x00\x00\x00\x00'
p3797
tp3798
Rp3799
sba(iyelp_data_provider
YelpReview
p3800
(dp3801
g25
S'4.0'
p3802
sg27
g28
(S'\x07\xdb\x06\x0c\x00\x00\x00\x00\x00\x00'
p3803
tp3804
Rp3805
sba(iyelp_data_provider
YelpReview
p3806
(dp3807
g25
S'5.0'
p3808
sg27
g28
(S'\x07\xdb\x0b\x10\x00\x00\x00\x00\x00\x00'
p3809
tp3810
Rp3811
sba(iyelp_data_provider
YelpReview
p3812
(dp3813
g25
S'5.0'
p3814
sg27
g28
(S'\x07\xdb\x06\x0e\x00\x00\x00\x00\x00\x00'
p3815
tp3816
Rp3817
sba(iyelp_data_provider
YelpReview
p3818
(dp3819
g25
S'5.0'
p3820
sg27
g28
(S'\x07\xdb\x04\x05\x00\x00\x00\x00\x00\x00'
p3821
tp3822
Rp3823
sba(iyelp_data_provider
YelpReview
p3824
(dp3825
g25
S'5.0'
p3826
sg27
g28
(S'\x07\xdb\x07\x17\x00\x00\x00\x00\x00\x00'
p3827
tp3828
Rp3829
sba(iyelp_data_provider
YelpReview
p3830
(dp3831
g25
S'4.0'
p3832
sg27
g28
(S'\x07\xdb\x03\x03\x00\x00\x00\x00\x00\x00'
p3833
tp3834
Rp3835
sba(iyelp_data_provider
YelpReview
p3836
(dp3837
g25
S'5.0'
p3838
sg27
g28
(S'\x07\xdb\x06\x06\x00\x00\x00\x00\x00\x00'
p3839
tp3840
Rp3841
sba(iyelp_data_provider
YelpReview
p3842
(dp3843
g25
S'5.0'
p3844
sg27
g28
(S'\x07\xdb\x03\x0c\x00\x00\x00\x00\x00\x00'
p3845
tp3846
Rp3847
sba(iyelp_data_provider
YelpReview
p3848
(dp3849
g25
S'5.0'
p3850
sg27
g28
(S'\x07\xdb\x06\x1c\x00\x00\x00\x00\x00\x00'
p3851
tp3852
Rp3853
sba(iyelp_data_provider
YelpReview
p3854
(dp3855
g25
S'5.0'
p3856
sg27
g28
(S'\x07\xdb\x06\x03\x00\x00\x00\x00\x00\x00'
p3857
tp3858
Rp3859
sba(iyelp_data_provider
YelpReview
p3860
(dp3861
g25
S'4.0'
p3862
sg27
g28
(S'\x07\xdb\x04\x04\x00\x00\x00\x00\x00\x00'
p3863
tp3864
Rp3865
sba(iyelp_data_provider
YelpReview
p3866
(dp3867
g25
S'4.0'
p3868
sg27
g28
(S'\x07\xdb\x07\x0c\x00\x00\x00\x00\x00\x00'
p3869
tp3870
Rp3871
sba(iyelp_data_provider
YelpReview
p3872
(dp3873
g25
S'4.0'
p3874
sg27
g28
(S'\x07\xdb\x03\x14\x00\x00\x00\x00\x00\x00'
p3875
tp3876
Rp3877
sba(iyelp_data_provider
YelpReview
p3878
(dp3879
g25
S'4.0'
p3880
sg27
g28
(S'\x07\xdb\x01\x13\x00\x00\x00\x00\x00\x00'
p3881
tp3882
Rp3883
sba(iyelp_data_provider
YelpReview
p3884
(dp3885
g25
S'4.0'
p3886
sg27
g28
(S'\x07\xdb\x01\x1e\x00\x00\x00\x00\x00\x00'
p3887
tp3888
Rp3889
sba(iyelp_data_provider
YelpReview
p3890
(dp3891
g25
S'4.0'
p3892
sg27
g28
(S'\x07\xdb\x01\x04\x00\x00\x00\x00\x00\x00'
p3893
tp3894
Rp3895
sba(iyelp_data_provider
YelpReview
p3896
(dp3897
g25
S'2.0'
p3898
sg27
g28
(S'\x07\xdb\x06\x0c\x00\x00\x00\x00\x00\x00'
p3899
tp3900
Rp3901
sba(iyelp_data_provider
YelpReview
p3902
(dp3903
g25
S'5.0'
p3904
sg27
g28
(S'\x07\xdb\x01\x1a\x00\x00\x00\x00\x00\x00'
p3905
tp3906
Rp3907
sba(iyelp_data_provider
YelpReview
p3908
(dp3909
g25
S'4.0'
p3910
sg27
g28
(S'\x07\xdb\x01\x18\x00\x00\x00\x00\x00\x00'
p3911
tp3912
Rp3913
sba(iyelp_data_provider
YelpReview
p3914
(dp3915
g25
S'5.0'
p3916
sg27
g28
(S'\x07\xdb\t\x0f\x00\x00\x00\x00\x00\x00'
p3917
tp3918
Rp3919
sba(iyelp_data_provider
YelpReview
p3920
(dp3921
g25
S'5.0'
p3922
sg27
g28
(S'\x07\xdb\x02\x17\x00\x00\x00\x00\x00\x00'
p3923
tp3924
Rp3925
sba(iyelp_data_provider
YelpReview
p3926
(dp3927
g25
S'3.0'
p3928
sg27
g28
(S'\x07\xdb\x05\x18\x00\x00\x00\x00\x00\x00'
p3929
tp3930
Rp3931
sba(iyelp_data_provider
YelpReview
p3932
(dp3933
g25
S'5.0'
p3934
sg27
g28
(S'\x07\xdb\x04\n\x00\x00\x00\x00\x00\x00'
p3935
tp3936
Rp3937
sba(iyelp_data_provider
YelpReview
p3938
(dp3939
g25
S'3.0'
p3940
sg27
g28
(S'\x07\xdb\x02\x12\x00\x00\x00\x00\x00\x00'
p3941
tp3942
Rp3943
sba(iyelp_data_provider
YelpReview
p3944
(dp3945
g25
S'4.0'
p3946
sg27
g28
(S'\x07\xdb\x01\x1c\x00\x00\x00\x00\x00\x00'
p3947
tp3948
Rp3949
sbasg32
I01
sg33
VNY
p3950
sg35
F40.7633382
sg36
I01
sg37
S'$$'
p3951
sg39
VdXK2R-3ECPqXVgjvGlV8Cw
p3952
sba(iyelp_data_provider
YelpBusiness
p3953
(dp3954
g5
S'restaurant'
p3955
sg6
VNew York
p3956
sg8
I42
sg9
VBrasserie Pushkin
p3957
sg11
V10019
p3958
sg13
Vhttp://www.yelp.com/biz/brasserie-pushkin-new-york
p3959
sg15
V41 W 57th St
p3960
sg17
F3.5
sg18
g19
sg20
F-73.976398
sg21
(lp3961
sg32
I01
sg33
VNY
p3962
sg35
F40.764169
sg36
I01
sg37
S'$$$'
p3963
sg39
VJIvv70fu_Sc62AKafnsiXg
p3964
sba(iyelp_data_provider
YelpBusiness
p3965
(dp3966
g5
S'restaurant'
p3967
sg6
VManhattan
p3968
sg8
I22
sg9
VSuite 55
p3969
sg11
V10019
p3970
sg13
Vhttp://www.yelp.com/biz/suite-55-manhattan
p3971
sg15
V47 W 55th St
p3972
sg17
F2.5
sg18
g19
sg20
F-73.9768699
sg21
(lp3973
(iyelp_data_provider
YelpReview
p3974
(dp3975
g25
S'2.0'
p3976
sg27
g28
(S'\x07\xdb\n\x19\x00\x00\x00\x00\x00\x00'
p3977
tp3978
Rp3979
sbasg32
I01
sg33
VNY
p3980
sg35
F40.7624936
sg36
I01
sg37
S'$$$$'
p3981
sg39
VjyB1fKxmsa-1-X5_7SAiCg
p3982
sba(iyelp_data_provider
YelpBusiness
p3983
(dp3984
g5
S'restaurant'
p3985
sg6
VNew York
p3986
sg8
I7
sg9
VChipotle Mexican Grill
p3987
sg11
V10107
p3988
sg13
Vhttp://www.yelp.com/biz/chipotle-mexican-grill-new-york-20
p3989
sg15
V235 W 56th St
p3990
sg17
F4.0
sg18
g19
sg20
F-73.9828208
sg21
(lp3991
(iyelp_data_provider
YelpReview
p3992
(dp3993
g25
S'5.0'
p3994
sg27
g28
(S'\x07\xdb\x08\x11\x00\x00\x00\x00\x00\x00'
p3995
tp3996
Rp3997
sba(iyelp_data_provider
YelpReview
p3998
(dp3999
g25
S'4.0'
p4000
sg27
g28
(S'\x07\xdb\x03\x1f\x00\x00\x00\x00\x00\x00'
p4001
tp4002
Rp4003
sba(iyelp_data_provider
YelpReview
p4004
(dp4005
g25
S'4.0'
p4006
sg27
g28
(S'\x07\xdb\x02\x08\x00\x00\x00\x00\x00\x00'
p4007
tp4008
Rp4009
sba(iyelp_data_provider
YelpReview
p4010
(dp4011
g25
S'4.0'
p4012
sg27
g28
(S'\x07\xdb\x03\n\x00\x00\x00\x00\x00\x00'
p4013
tp4014
Rp4015
sba(iyelp_data_provider
YelpReview
p4016
(dp4017
g25
S'4.0'
p4018
sg27
g28
(S'\x07\xdb\x05\x12\x00\x00\x00\x00\x00\x00'
p4019
tp4020
Rp4021
sbasg32
I01
sg33
VNY
p4022
sg35
F40.7660256
sg36
I01
sg39
VO3h2lFy70UUJMzZ5q-00Mg
p4023
sba(iyelp_data_provider
YelpBusiness
p4024
(dp4025
g5
S'restaurant'
p4026
sg6
VNew York
p4027
sg8
I25
sg9
VPrinton 56
p4028
sg11
V10019
p4029
sg13
Vhttp://www.yelp.com/biz/printon-56-new-york
p4030
sg15
V48 W 56th Street
p4031
sg17
F3.5
sg18
g19
sg20
F-73.9769
sg21
(lp4032
(iyelp_data_provider
YelpReview
p4033
(dp4034
g25
S'5.0'
p4035
sg27
g28
(S'\x07\xdb\x0b\x0f\x00\x00\x00\x00\x00\x00'
p4036
tp4037
Rp4038
sba(iyelp_data_provider
YelpReview
p4039
(dp4040
g25
S'4.0'
p4041
sg27
g28
(S'\x07\xdb\x04\x1b\x00\x00\x00\x00\x00\x00'
p4042
tp4043
Rp4044
sba(iyelp_data_provider
YelpReview
p4045
(dp4046
g25
S'3.0'
p4047
sg27
g28
(S'\x07\xdb\x02\x19\x00\x00\x00\x00\x00\x00'
p4048
tp4049
Rp4050
sbasg32
I01
sg33
VNY
p4051
sg35
F40.7630679
sg36
I01
sg37
S'$'
p4052
sg39
VNnuOn_z0OjdE72VZ7uCaVA
p4053
sba(iyelp_data_provider
YelpBusiness
p4054
(dp4055
g5
S'restaurant'
p4056
sg6
VNew York
p4057
sg8
I25
sg9
VLindt Chocolate Shop
p4058
sg11
V10019
p4059
sg13
Vhttp://www.yelp.com/biz/lindt-chocolate-shop-new-york
p4060
sg15
V692 5th Ave
p4061
sg17
F4.0
sg18
g19
sg20
F-73.9751807
sg21
(lp4062
(iyelp_data_provider
YelpReview
p4063
(dp4064
g25
S'4.0'
p4065
sg27
g28
(S'\x07\xdb\x07\x18\x00\x00\x00\x00\x00\x00'
p4066
tp4067
Rp4068
sba(iyelp_data_provider
YelpReview
p4069
(dp4070
g25
S'4.0'
p4071
sg27
g28
(S'\x07\xdb\x02\x1a\x00\x00\x00\x00\x00\x00'
p4072
tp4073
Rp4074
sba(iyelp_data_provider
YelpReview
p4075
(dp4076
g25
S'5.0'
p4077
sg27
g28
(S'\x07\xdb\t\n\x00\x00\x00\x00\x00\x00'
p4078
tp4079
Rp4080
sba(iyelp_data_provider
YelpReview
p4081
(dp4082
g25
S'5.0'
p4083
sg27
g28
(S'\x07\xdb\x06\x08\x00\x00\x00\x00\x00\x00'
p4084
tp4085
Rp4086
sba(iyelp_data_provider
YelpReview
p4087
(dp4088
g25
S'4.0'
p4089
sg27
g28
(S'\x07\xdb\x04\x0c\x00\x00\x00\x00\x00\x00'
p4090
tp4091
Rp4092
sbasg32
I01
sg33
VNY
p4093
sg35
F40.7613331
sg36
I01
sg37
S'$$'
p4094
sg39
VUbJeZR6lNLOZAWwbNjqn4w
p4095
sba(iyelp_data_provider
YelpBusiness
p4096
(dp4097
g5
S'restaurant'
p4098
sg6
VNew York
p4099
sg8
I29
sg9
VRaga Indian Restaurant
p4100
sg11
V10019
p4101
sg13
Vhttp://www.yelp.com/biz/raga-indian-restaurant-new-york
p4102
sg15
V58 W 56th St
p4103
sg17
F3.5
sg18
g19
sg20
F-73.977131
sg21
(lp4104
(iyelp_data_provider
YelpReview
p4105
(dp4106
g25
S'3.5'
p4107
sg27
g28
(S'\x07\xdb\x08\x0c\x00\x00\x00\x00\x00\x00'
p4108
tp4109
Rp4110
sba(iyelp_data_provider
YelpReview
p4111
(dp4112
g25
S'3.0'
p4113
sg27
g28
(S'\x07\xdb\x07\x07\x00\x00\x00\x00\x00\x00'
p4114
tp4115
Rp4116
sba(iyelp_data_provider
YelpReview
p4117
(dp4118
g25
S'4.0'
p4119
sg27
g28
(S'\x07\xdb\t\x07\x00\x00\x00\x00\x00\x00'
p4120
tp4121
Rp4122
sba(iyelp_data_provider
YelpReview
p4123
(dp4124
g25
S'4.0'
p4125
sg27
g28
(S'\x07\xdb\x08\n\x00\x00\x00\x00\x00\x00'
p4126
tp4127
Rp4128
sba(iyelp_data_provider
YelpReview
p4129
(dp4130
g25
S'4.0'
p4131
sg27
g28
(S'\x07\xdb\x02\x17\x00\x00\x00\x00\x00\x00'
p4132
tp4133
Rp4134
sba(iyelp_data_provider
YelpReview
p4135
(dp4136
g25
S'2.0'
p4137
sg27
g28
(S'\x07\xdb\x04\x11\x00\x00\x00\x00\x00\x00'
p4138
tp4139
Rp4140
sba(iyelp_data_provider
YelpReview
p4141
(dp4142
g25
S'4.0'
p4143
sg27
g28
(S'\x07\xdb\x05\r\x00\x00\x00\x00\x00\x00'
p4144
tp4145
Rp4146
sba(iyelp_data_provider
YelpReview
p4147
(dp4148
g25
S'5.0'
p4149
sg27
g28
(S'\x07\xdb\x06\x01\x00\x00\x00\x00\x00\x00'
p4150
tp4151
Rp4152
sba(iyelp_data_provider
YelpReview
p4153
(dp4154
g25
S'3.0'
p4155
sg27
g28
(S'\x07\xdb\x06\x07\x00\x00\x00\x00\x00\x00'
p4156
tp4157
Rp4158
sba(iyelp_data_provider
YelpReview
p4159
(dp4160
g25
S'4.0'
p4161
sg27
g28
(S'\x07\xdb\x0b\x1a\x00\x00\x00\x00\x00\x00'
p4162
tp4163
Rp4164
sba(iyelp_data_provider
YelpReview
p4165
(dp4166
g25
S'5.0'
p4167
sg27
g28
(S'\x07\xdb\n\x1b\x00\x00\x00\x00\x00\x00'
p4168
tp4169
Rp4170
sba(iyelp_data_provider
YelpReview
p4171
(dp4172
g25
S'2.0'
p4173
sg27
g28
(S'\x07\xdb\x06\x16\x00\x00\x00\x00\x00\x00'
p4174
tp4175
Rp4176
sba(iyelp_data_provider
YelpReview
p4177
(dp4178
g25
S'4.0'
p4179
sg27
g28
(S'\x07\xdb\x01\x03\x00\x00\x00\x00\x00\x00'
p4180
tp4181
Rp4182
sba(iyelp_data_provider
YelpReview
p4183
(dp4184
g25
S'4.0'
p4185
sg27
g28
(S'\x07\xdb\n\n\x00\x00\x00\x00\x00\x00'
p4186
tp4187
Rp4188
sba(iyelp_data_provider
YelpReview
p4189
(dp4190
g25
S'1.0'
p4191
sg27
g28
(S'\x07\xdb\x03\x04\x00\x00\x00\x00\x00\x00'
p4192
tp4193
Rp4194
sba(iyelp_data_provider
YelpReview
p4195
(dp4196
g25
S'5.0'
p4197
sg27
g28
(S'\x07\xdb\x06\x05\x00\x00\x00\x00\x00\x00'
p4198
tp4199
Rp4200
sba(iyelp_data_provider
YelpReview
p4201
(dp4202
g25
S'4.0'
p4203
sg27
g28
(S'\x07\xdb\x06\x02\x00\x00\x00\x00\x00\x00'
p4204
tp4205
Rp4206
sba(iyelp_data_provider
YelpReview
p4207
(dp4208
g25
S'3.0'
p4209
sg27
g28
(S'\x07\xdb\x08\x10\x00\x00\x00\x00\x00\x00'
p4210
tp4211
Rp4212
sbasg32
I01
sg33
VNY
p4213
sg35
F40.763167
sg36
I01
sg37
S'$$'
p4214
sg39
V72ZQB0z307Knkzu2qSk1jw
p4215
sba(iyelp_data_provider
YelpBusiness
p4216
(dp4217
g5
S'restaurant'
p4218
sg6
VNew York
p4219
sg8
I30
sg9
VStage Star Deli
p4220
sg11
V10019
p4221
sg13
Vhttp://www.yelp.com/biz/stage-star-deli-new-york
p4222
sg15
V105 W 55th St
p4223
sg17
F3.0
sg18
g19
sg20
F-73.978612
sg21
(lp4224
(iyelp_data_provider
YelpReview
p4225
(dp4226
g25
S'4.0'
p4227
sg27
g28
(S'\x07\xdb\x06\x08\x00\x00\x00\x00\x00\x00'
p4228
tp4229
Rp4230
sba(iyelp_data_provider
YelpReview
p4231
(dp4232
g25
S'5.0'
p4233
sg27
g28
(S'\x07\xdb\x02\x03\x00\x00\x00\x00\x00\x00'
p4234
tp4235
Rp4236
sba(iyelp_data_provider
YelpReview
p4237
(dp4238
g25
S'3.0'
p4239
sg27
g28
(S'\x07\xdb\x07\x1c\x00\x00\x00\x00\x00\x00'
p4240
tp4241
Rp4242
sba(iyelp_data_provider
YelpReview
p4243
(dp4244
g25
S'1.0'
p4245
sg27
g28
(S'\x07\xdb\n\x13\x00\x00\x00\x00\x00\x00'
p4246
tp4247
Rp4248
sba(iyelp_data_provider
YelpReview
p4249
(dp4250
g25
S'5.0'
p4251
sg27
g28
(S'\x07\xdb\x02\x13\x00\x00\x00\x00\x00\x00'
p4252
tp4253
Rp4254
sbasg32
I01
sg33
VNY
p4255
sg35
F40.763476
sg36
I01
sg37
S'$$'
p4256
sg39
V_B7pTmtDkPE7F1dNR_DGRA
p4257
sba(iyelp_data_provider
YelpBusiness
p4258
(dp4259
g5
S'restaurant'
p4260
sg6
VNew York
p4261
sg8
I22
sg9
VJudge Roy Bean
p4262
sg11
V10019
p4263
sg13
Vhttp://www.yelp.com/biz/judge-roy-bean-new-york
p4264
sg15
V38 W 56th St
p4265
sg17
F3.5
sg18
g19
sg20
F-73.976459
sg21
(lp4266
(iyelp_data_provider
YelpReview
p4267
(dp4268
g25
S'5.0'
p4269
sg27
g28
(S'\x07\xdb\x04\x16\x00\x00\x00\x00\x00\x00'
p4270
tp4271
Rp4272
sba(iyelp_data_provider
YelpReview
p4273
(dp4274
g25
S'3.0'
p4275
sg27
g28
(S'\x07\xdb\t\t\x00\x00\x00\x00\x00\x00'
p4276
tp4277
Rp4278
sba(iyelp_data_provider
YelpReview
p4279
(dp4280
g25
S'5.0'
p4281
sg27
g28
(S'\x07\xdb\x08\x02\x00\x00\x00\x00\x00\x00'
p4282
tp4283
Rp4284
sba(iyelp_data_provider
YelpReview
p4285
(dp4286
g25
S'4.0'
p4287
sg27
g28
(S'\x07\xdb\x01\x06\x00\x00\x00\x00\x00\x00'
p4288
tp4289
Rp4290
sba(iyelp_data_provider
YelpReview
p4291
(dp4292
g25
S'2.0'
p4293
sg27
g28
(S'\x07\xdb\x01\x1f\x00\x00\x00\x00\x00\x00'
p4294
tp4295
Rp4296
sba(iyelp_data_provider
YelpReview
p4297
(dp4298
g25
S'2.0'
p4299
sg27
g28
(S'\x07\xdb\x05\t\x00\x00\x00\x00\x00\x00'
p4300
tp4301
Rp4302
sbasg32
I01
sg33
VNY
p4303
sg35
F40.76288
sg36
I01
sg37
S'$'
p4304
sg39
Vveku2cg2qaV-7MxwhOMBmg
p4305
sba(iyelp_data_provider
YelpBusiness
p4306
(dp4307
g5
S'restaurant'
p4308
sg6
VManhattan
p4309
sg8
I43
sg9
VDig Inn Seasonal Market
p4310
sg11
V10019
p4311
sg13
Vhttp://www.yelp.com/biz/dig-inn-seasonal-market-manhattan-7
p4312
sg15
V40 W 55th St
p4313
sg17
F3.5
sg18
g19
sg20
F-73.976755
sg21
(lp4314
(iyelp_data_provider
YelpReview
p4315
(dp4316
g25
S'3.0'
p4317
sg27
g28
(S'\x07\xdb\n\x0e\x00\x00\x00\x00\x00\x00'
p4318
tp4319
Rp4320
sba(iyelp_data_provider
YelpReview
p4321
(dp4322
g25
S'4.0'
p4323
sg27
g28
(S'\x07\xdb\x0c\x07\x00\x00\x00\x00\x00\x00'
p4324
tp4325
Rp4326
sba(iyelp_data_provider
YelpReview
p4327
(dp4328
g25
S'5.0'
p4329
sg27
g28
(S'\x07\xdb\n\x15\x00\x00\x00\x00\x00\x00'
p4330
tp4331
Rp4332
sba(iyelp_data_provider
YelpReview
p4333
(dp4334
g25
S'5.0'
p4335
sg27
g28
(S'\x07\xdb\x0b\t\x00\x00\x00\x00\x00\x00'
p4336
tp4337
Rp4338
sba(iyelp_data_provider
YelpReview
p4339
(dp4340
g25
S'4.0'
p4341
sg27
g28
(S'\x07\xdb\n\x1c\x00\x00\x00\x00\x00\x00'
p4342
tp4343
Rp4344
sba(iyelp_data_provider
YelpReview
p4345
(dp4346
g25
S'4.0'
p4347
sg27
g28
(S'\x07\xdb\n\x1a\x00\x00\x00\x00\x00\x00'
p4348
tp4349
Rp4350
sba(iyelp_data_provider
YelpReview
p4351
(dp4352
g25
S'3.0'
p4353
sg27
g28
(S'\x07\xdb\x0c\x02\x00\x00\x00\x00\x00\x00'
p4354
tp4355
Rp4356
sbasg32
I01
sg33
VNY
p4357
sg35
F40.7623202
sg36
I01
sg37
S'$$'
p4358
sg39
VbtDc58odxR_71u8RCtQwOw
p4359
sba(iyelp_data_provider
YelpBusiness
p4360
(dp4361
g5
S'restaurant'
p4362
sg6
VNew York
p4363
sg8
I42
sg9
VBrasserie Pushkin
p4364
sg11
V10019
p4365
sg13
Vhttp://www.yelp.com/biz/brasserie-pushkin-new-york
p4366
sg15
V41 W 57th St
p4367
sg17
F3.5
sg18
g19
sg20
F-73.976398
sg21
(lp4368
sg32
I01
sg33
VNY
p4369
sg35
F40.764169
sg36
I01
sg37
S'$$$'
p4370
sg39
VJIvv70fu_Sc62AKafnsiXg
p4371
sba(iyelp_data_provider
YelpBusiness
p4372
(dp4373
g5
S'restaurant'
p4374
sg6
VNew York
p4375
sg8
I11
sg9
VPotbelly Sandwich Shop
p4376
sg11
V10019
p4377
sg13
Vhttp://www.yelp.com/biz/potbelly-sandwich-shop-new-york-10
p4378
sg15
V46 W 56th St
p4379
sg17
F4.0
sg18
g19
sg20
F-73.97677
sg21
(lp4380
sg32
I01
sg33
VNY
p4381
sg35
F40.763013
sg36
I01
sg37
S'$'
p4382
sg39
VaxVzeaTizNeMrwHP6ylydQ
p4383
sbas.