(lp0
(iyelp_data_provider
YelpBusiness
p1
(dp2
S'review_count'
p3
I38
sS'name'
p4
VFlowers By Richard
p5
sS'url'
p6
Vhttp://www.yelp.com/biz/flowers-by-richard-new-york
p7
sS'avg_rating'
p8
F4.5
sS'longitude'
p9
F-73.9856558
sS'reviews'
p10
(lp11
(iyelp_data_provider
YelpReview
p12
(dp13
S'rating'
p14
S'4.5'
p15
sS'pub_date'
p16
S'2012-09-28'
p17
sba(iyelp_data_provider
YelpReview
p18
(dp19
g14
S'5.0'
p20
sg16
S'2012-06-22'
p21
sba(iyelp_data_provider
YelpReview
p22
(dp23
g14
S'5.0'
p24
sg16
S'2011-07-10'
p25
sba(iyelp_data_provider
YelpReview
p26
(dp27
g14
S'2.0'
p28
sg16
S'2011-06-01'
p29
sba(iyelp_data_provider
YelpReview
p30
(dp31
g14
S'4.0'
p32
sg16
S'2012-05-16'
p33
sba(iyelp_data_provider
YelpReview
p34
(dp35
g14
S'5.0'
p36
sg16
S'2011-02-01'
p37
sba(iyelp_data_provider
YelpReview
p38
(dp39
g14
S'5.0'
p40
sg16
S'2009-03-09'
p41
sba(iyelp_data_provider
YelpReview
p42
(dp43
g14
S'5.0'
p44
sg16
S'2008-10-03'
p45
sba(iyelp_data_provider
YelpReview
p46
(dp47
g14
S'5.0'
p48
sg16
S'2010-08-04'
p49
sba(iyelp_data_provider
YelpReview
p50
(dp51
g14
S'5.0'
p52
sg16
S'2010-07-20'
p53
sba(iyelp_data_provider
YelpReview
p54
(dp55
g14
S'4.0'
p56
sg16
S'2010-09-25'
p57
sba(iyelp_data_provider
YelpReview
p58
(dp59
g14
S'5.0'
p60
sg16
S'2010-02-10'
p61
sba(iyelp_data_provider
YelpReview
p62
(dp63
g14
S'4.0'
p64
sg16
S'2010-10-25'
p65
sba(iyelp_data_provider
YelpReview
p66
(dp67
g14
S'5.0'
p68
sg16
S'2011-06-03'
p69
sba(iyelp_data_provider
YelpReview
p70
(dp71
g14
S'5.0'
p72
sg16
S'2011-09-02'
p73
sba(iyelp_data_provider
YelpReview
p74
(dp75
g14
S'5.0'
p76
sg16
S'2011-04-18'
p77
sba(iyelp_data_provider
YelpReview
p78
(dp79
g14
S'5.0'
p80
sg16
S'2011-07-31'
p81
sba(iyelp_data_provider
YelpReview
p82
(dp83
g14
S'5.0'
p84
sg16
S'2009-10-14'
p85
sba(iyelp_data_provider
YelpReview
p86
(dp87
g14
S'5.0'
p88
sg16
S'2010-07-28'
p89
sba(iyelp_data_provider
YelpReview
p90
(dp91
g14
S'4.0'
p92
sg16
S'2009-03-05'
p93
sba(iyelp_data_provider
YelpReview
p94
(dp95
g14
S'5.0'
p96
sg16
S'2012-02-14'
p97
sba(iyelp_data_provider
YelpReview
p98
(dp99
g14
S'5.0'
p100
sg16
S'2011-03-23'
p101
sba(iyelp_data_provider
YelpReview
p102
(dp103
g14
S'5.0'
p104
sg16
S'2010-03-16'
p105
sba(iyelp_data_provider
YelpReview
p106
(dp107
g14
S'5.0'
p108
sg16
S'2011-04-20'
p109
sba(iyelp_data_provider
YelpReview
p110
(dp111
g14
S'5.0'
p112
sg16
S'2011-10-25'
p113
sba(iyelp_data_provider
YelpReview
p114
(dp115
g14
S'5.0'
p116
sg16
S'2010-03-18'
p117
sba(iyelp_data_provider
YelpReview
p118
(dp119
g14
S'5.0'
p120
sg16
S'2010-03-19'
p121
sba(iyelp_data_provider
YelpReview
p122
(dp123
g14
S'5.0'
p124
sg16
S'2010-05-27'
p125
sba(iyelp_data_provider
YelpReview
p126
(dp127
g14
S'5.0'
p128
sg16
S'2010-11-24'
p129
sba(iyelp_data_provider
YelpReview
p130
(dp131
g14
S'5.0'
p132
sg16
S'2011-11-25'
p133
sba(iyelp_data_provider
YelpReview
p134
(dp135
g14
S'5.0'
p136
sg16
S'2012-02-10'
p137
sba(iyelp_data_provider
YelpReview
p138
(dp139
g14
S'2.0'
p140
sg16
S'2010-08-30'
p141
sba(iyelp_data_provider
YelpReview
p142
(dp143
g14
S'2.0'
p144
sg16
S'2011-04-15'
p145
sba(iyelp_data_provider
YelpReview
p146
(dp147
g14
S'5.0'
p148
sg16
S'2010-12-16'
p149
sba(iyelp_data_provider
YelpReview
p150
(dp151
g14
S'5.0'
p152
sg16
S'2009-10-29'
p153
sba(iyelp_data_provider
YelpReview
p154
(dp155
g14
S'5.0'
p156
sg16
S'2010-06-22'
p157
sba(iyelp_data_provider
YelpReview
p158
(dp159
g14
S'5.0'
p160
sg16
S'2008-09-30'
p161
sba(iyelp_data_provider
YelpReview
p162
(dp163
g14
S'5.0'
p164
sg16
S'2010-11-09'
p165
sbasS'has_extra_content'
p166
I01
sS'latitude'
p167
F40.7644905
sS'price_range'
p168
S'$$'
p169
sS'id'
p170
V3_zjNWQyroacAIVrTL33Cg
p171
sba(iyelp_data_provider
YelpBusiness
p172
(dp173
g3
I9
sg4
VScott's Flowers NYC
p174
sg6
Vhttp://www.yelp.com/biz/scotts-flowers-nyc-new-york
p175
sg8
F4.5
sg9
F-73.9842882
sg10
(lp176
(iyelp_data_provider
YelpReview
p177
(dp178
g14
S'4.5'
p179
sg16
S'2012-08-09'
p180
sba(iyelp_data_provider
YelpReview
p181
(dp182
g14
S'5.0'
p183
sg16
S'2012-07-02'
p184
sba(iyelp_data_provider
YelpReview
p185
(dp186
g14
S'5.0'
p187
sg16
S'2010-06-30'
p188
sba(iyelp_data_provider
YelpReview
p189
(dp190
g14
S'5.0'
p191
sg16
S'2011-10-05'
p192
sba(iyelp_data_provider
YelpReview
p193
(dp194
g14
S'4.0'
p195
sg16
S'2007-12-11'
p196
sba(iyelp_data_provider
YelpReview
p197
(dp198
g14
S'5.0'
p199
sg16
S'2008-07-23'
p200
sba(iyelp_data_provider
YelpReview
p201
(dp202
g14
S'5.0'
p203
sg16
S'2012-02-13'
p204
sba(iyelp_data_provider
YelpReview
p205
(dp206
g14
S'1.0'
p207
sg16
S'2009-10-27'
p208
sba(iyelp_data_provider
YelpReview
p209
(dp210
g14
S'5.0'
p211
sg16
S'2011-08-04'
p212
sbasg166
I01
sg167
F40.7509583
sg168
S'$$'
p213
sg170
VJ45M4ZLsVhrB1EAQNeEWwA
p214
sba(iyelp_data_provider
YelpBusiness
p215
(dp216
g3
I31
sg4
VPosies
p217
sg6
Vhttp://www.yelp.com/biz/posies-new-york-3
p218
sg8
F4.0
sg9
F-73.9791711
sg10
(lp219
(iyelp_data_provider
YelpReview
p220
(dp221
g14
S'4.0'
p222
sg16
S'2012-10-15'
p223
sba(iyelp_data_provider
YelpReview
p224
(dp225
g14
S'5.0'
p226
sg16
S'2012-07-17'
p227
sba(iyelp_data_provider
YelpReview
p228
(dp229
g14
S'4.0'
p230
sg16
S'2012-10-13'
p231
sba(iyelp_data_provider
YelpReview
p232
(dp233
g14
S'1.0'
p234
sg16
S'2012-01-27'
p235
sba(iyelp_data_provider
YelpReview
p236
(dp237
g14
S'4.0'
p238
sg16
S'2012-09-09'
p239
sba(iyelp_data_provider
YelpReview
p240
(dp241
g14
S'5.0'
p242
sg16
S'2010-08-12'
p243
sba(iyelp_data_provider
YelpReview
p244
(dp245
g14
S'5.0'
p246
sg16
S'2008-09-19'
p247
sba(iyelp_data_provider
YelpReview
p248
(dp249
g14
S'2.0'
p250
sg16
S'2009-08-20'
p251
sba(iyelp_data_provider
YelpReview
p252
(dp253
g14
S'5.0'
p254
sg16
S'2012-05-04'
p255
sba(iyelp_data_provider
YelpReview
p256
(dp257
g14
S'5.0'
p258
sg16
S'2009-06-09'
p259
sba(iyelp_data_provider
YelpReview
p260
(dp261
g14
S'4.0'
p262
sg16
S'2007-12-04'
p263
sba(iyelp_data_provider
YelpReview
p264
(dp265
g14
S'5.0'
p266
sg16
S'2011-12-29'
p267
sba(iyelp_data_provider
YelpReview
p268
(dp269
g14
S'5.0'
p270
sg16
S'2010-10-26'
p271
sba(iyelp_data_provider
YelpReview
p272
(dp273
g14
S'2.0'
p274
sg16
S'2012-05-09'
p275
sba(iyelp_data_provider
YelpReview
p276
(dp277
g14
S'1.0'
p278
sg16
S'2009-01-06'
p279
sba(iyelp_data_provider
YelpReview
p280
(dp281
g14
S'4.0'
p282
sg16
S'2012-01-02'
p283
sba(iyelp_data_provider
YelpReview
p284
(dp285
g14
S'5.0'
p286
sg16
S'2012-06-10'
p287
sba(iyelp_data_provider
YelpReview
p288
(dp289
g14
S'5.0'
p290
sg16
S'2012-04-19'
p291
sba(iyelp_data_provider
YelpReview
p292
(dp293
g14
S'4.0'
p294
sg16
S'2007-05-04'
p295
sba(iyelp_data_provider
YelpReview
p296
(dp297
g14
S'5.0'
p298
sg16
S'2012-05-17'
p299
sba(iyelp_data_provider
YelpReview
p300
(dp301
g14
S'4.0'
p302
sg16
S'2008-05-26'
p303
sba(iyelp_data_provider
YelpReview
p304
(dp305
g14
S'5.0'
p306
sg16
S'2012-03-24'
p307
sba(iyelp_data_provider
YelpReview
p308
(dp309
g14
S'2.0'
p310
sg16
S'2009-11-12'
p311
sba(iyelp_data_provider
YelpReview
p312
(dp313
g14
S'5.0'
p314
sg16
S'2009-05-19'
p315
sba(iyelp_data_provider
YelpReview
p316
(dp317
g14
S'4.0'
p318
sg16
S'2010-03-05'
p319
sba(iyelp_data_provider
YelpReview
p320
(dp321
g14
S'1.0'
p322
sg16
S'2010-06-22'
p323
sba(iyelp_data_provider
YelpReview
p324
(dp325
g14
S'5.0'
p326
sg16
S'2010-11-15'
p327
sba(iyelp_data_provider
YelpReview
p328
(dp329
g14
S'5.0'
p330
sg16
S'2012-01-19'
p331
sba(iyelp_data_provider
YelpReview
p332
(dp333
g14
S'5.0'
p334
sg16
S'2009-01-14'
p335
sba(iyelp_data_provider
YelpReview
p336
(dp337
g14
S'5.0'
p338
sg16
S'2010-03-11'
p339
sba(iyelp_data_provider
YelpReview
p340
(dp341
g14
S'4.0'
p342
sg16
S'2011-01-17'
p343
sbasg166
I01
sg167
F40.7821628
sg168
S'$$'
p344
sg170
VD9cPqJtg6VLI0Pmu2liYog
p345
sba(iyelp_data_provider
YelpBusiness
p346
(dp347
g3
I8
sg4
VDahlia Rockefeller Center
p348
sg6
Vhttp://www.yelp.com/biz/dahlia-rockefeller-center-new-york
p349
sg8
F4.0
sg9
F-73.9800487
sg10
(lp350
(iyelp_data_provider
YelpReview
p351
(dp352
g14
S'4.0'
p353
sg16
S'2012-06-28'
p354
sba(iyelp_data_provider
YelpReview
p355
(dp356
g14
S'5.0'
p357
sg16
S'2012-06-22'
p358
sba(iyelp_data_provider
YelpReview
p359
(dp360
g14
S'4.0'
p361
sg16
S'2011-04-13'
p362
sba(iyelp_data_provider
YelpReview
p363
(dp364
g14
S'5.0'
p365
sg16
S'2007-03-26'
p366
sba(iyelp_data_provider
YelpReview
p367
(dp368
g14
S'5.0'
p369
sg16
S'2010-12-20'
p370
sba(iyelp_data_provider
YelpReview
p371
(dp372
g14
S'5.0'
p373
sg16
S'2009-08-19'
p374
sba(iyelp_data_provider
YelpReview
p375
(dp376
g14
S'2.0'
p377
sg16
S'2011-08-10'
p378
sba(iyelp_data_provider
YelpReview
p379
(dp380
g14
S'5.0'
p381
sg16
S'2011-02-20'
p382
sbasg166
I01
sg167
F40.7589346
sg168
S'$$'
p383
sg170
VTwpMMEA21QgaImdP4PUiZQ
p384
sba(iyelp_data_provider
YelpBusiness
p385
(dp386
g3
I8
sg4
VMatles Florist
p387
sg6
Vhttp://www.yelp.com/biz/matles-florist-new-york
p388
sg8
F5.0
sg9
F-73.9841161
sg10
(lp389
(iyelp_data_provider
YelpReview
p390
(dp391
g14
S'5.0'
p392
sg16
S'2012-06-28'
p393
sba(iyelp_data_provider
YelpReview
p394
(dp395
g14
S'5.0'
p396
sg16
S'2011-08-22'
p397
sba(iyelp_data_provider
YelpReview
p398
(dp399
g14
S'5.0'
p400
sg16
S'2012-09-06'
p401
sba(iyelp_data_provider
YelpReview
p402
(dp403
g14
S'5.0'
p404
sg16
S'2012-09-05'
p405
sba(iyelp_data_provider
YelpReview
p406
(dp407
g14
S'5.0'
p408
sg16
S'2011-03-22'
p409
sba(iyelp_data_provider
YelpReview
p410
(dp411
g14
S'5.0'
p412
sg16
S'2008-04-30'
p413
sba(iyelp_data_provider
YelpReview
p414
(dp415
g14
S'5.0'
p416
sg16
S'2010-05-17'
p417
sba(iyelp_data_provider
YelpReview
p418
(dp419
g14
S'5.0'
p420
sg16
S'2011-06-25'
p421
sbasg166
I01
sg167
F40.7674818
sg168
S'$$'
p422
sg170
VzBcNs5oGFRtFbCPQjcT5sA
p423
sba(iyelp_data_provider
YelpBusiness
p424
(dp425
g3
I7
sg4
VFlowers of the World
p426
sg6
Vhttp://www.yelp.com/biz/flowers-of-the-world-new-york-2
p427
sg8
F4.0
sg9
F-73.9798081
sg10
(lp428
(iyelp_data_provider
YelpReview
p429
(dp430
g14
S'4.0'
p431
sg16
S'2010-06-09'
p432
sba(iyelp_data_provider
YelpReview
p433
(dp434
g14
S'5.0'
p435
sg16
S'2009-04-24'
p436
sba(iyelp_data_provider
YelpReview
p437
(dp438
g14
S'4.0'
p439
sg16
S'2011-09-29'
p440
sba(iyelp_data_provider
YelpReview
p441
(dp442
g14
S'5.0'
p443
sg16
S'2007-04-23'
p444
sba(iyelp_data_provider
YelpReview
p445
(dp446
g14
S'4.0'
p447
sg16
S'2007-04-22'
p448
sba(iyelp_data_provider
YelpReview
p449
(dp450
g14
S'4.0'
p451
sg16
S'2009-04-02'
p452
sba(iyelp_data_provider
YelpReview
p453
(dp454
g14
S'4.0'
p455
sg16
S'2009-03-11'
p456
sbasg166
I01
sg167
F40.7637271
sg168
S'$$$'
p457
sg170
VZ_NUc3f16PqR0-QDylOxgA
p458
sba(iyelp_data_provider
YelpBusiness
p459
(dp460
g3
I3
sg4
VStonekelly
p461
sg6
Vhttp://www.yelp.com/biz/stonekelly-new-york
p462
sg8
F5.0
sg9
F-73.9937672
sg10
(lp463
(iyelp_data_provider
YelpReview
p464
(dp465
g14
S'5.0'
p466
sg16
S'2012-05-22'
p467
sba(iyelp_data_provider
YelpReview
p468
(dp469
g14
S'5.0'
p470
sg16
S'2007-03-30'
p471
sba(iyelp_data_provider
YelpReview
p472
(dp473
g14
S'5.0'
p474
sg16
S'2006-05-09'
p475
sbasg166
I01
sg167
F40.767029
sg170
VmtOh_S1UBYikCK2j6Px5nw
p476
sba(iyelp_data_provider
YelpBusiness
p477
(dp478
g3
I12
sg4
VAmericas Florist
p479
sg6
Vhttp://www.yelp.com/biz/americas-florist-new-york
p480
sg8
F5.0
sg9
F-73.985562
sg10
(lp481
(iyelp_data_provider
YelpReview
p482
(dp483
g14
S'5.0'
p484
sg16
S'2012-10-19'
p485
sba(iyelp_data_provider
YelpReview
p486
(dp487
g14
S'5.0'
p488
sg16
S'2012-12-08'
p489
sba(iyelp_data_provider
YelpReview
p490
(dp491
g14
S'4.0'
p492
sg16
S'2012-11-30'
p493
sba(iyelp_data_provider
YelpReview
p494
(dp495
g14
S'5.0'
p496
sg16
S'2012-12-04'
p497
sba(iyelp_data_provider
YelpReview
p498
(dp499
g14
S'5.0'
p500
sg16
S'2012-04-04'
p501
sba(iyelp_data_provider
YelpReview
p502
(dp503
g14
S'5.0'
p504
sg16
S'2012-10-29'
p505
sba(iyelp_data_provider
YelpReview
p506
(dp507
g14
S'5.0'
p508
sg16
S'2012-07-16'
p509
sba(iyelp_data_provider
YelpReview
p510
(dp511
g14
S'5.0'
p512
sg16
S'2012-10-02'
p513
sba(iyelp_data_provider
YelpReview
p514
(dp515
g14
S'5.0'
p516
sg16
S'2010-07-29'
p517
sba(iyelp_data_provider
YelpReview
p518
(dp519
g14
S'5.0'
p520
sg16
S'2011-04-29'
p521
sba(iyelp_data_provider
YelpReview
p522
(dp523
g14
S'5.0'
p524
sg16
S'2006-08-27'
p525
sba(iyelp_data_provider
YelpReview
p526
(dp527
g14
S'3.0'
p528
sg16
S'2011-08-16'
p529
sbasg166
I01
sg167
F40.752328
sg168
S'$$'
p530
sg170
Vq7ePiDkRYys3_YAvQsmutg
p531
sba(iyelp_data_provider
YelpBusiness
p532
(dp533
g3
I3
sg4
VAllan's Florists
p534
sg6
Vhttp://www.yelp.com/biz/allans-florists-new-york
p535
sg8
F4.5
sg9
F-73.979589
sg10
(lp536
(iyelp_data_provider
YelpReview
p537
(dp538
g14
S'4.5'
p539
sg16
S'2012-03-29'
p540
sba(iyelp_data_provider
YelpReview
p541
(dp542
g14
S'5.0'
p543
sg16
S'2011-10-24'
p544
sba(iyelp_data_provider
YelpReview
p545
(dp546
g14
S'4.0'
p547
sg16
S'2010-04-20'
p548
sbasg166
I01
sg167
F40.751215
sg168
S'$$'
p549
sg170
Vnk3BrCmFnxy9hF4pqKzfEg
p550
sba(iyelp_data_provider
YelpBusiness
p551
(dp552
g3
I7
sg4
VPrudence Designs
p553
sg6
Vhttp://www.yelp.com/biz/prudence-designs-new-york
p554
sg8
F4.5
sg9
F-73.9943273
sg10
(lp555
(iyelp_data_provider
YelpReview
p556
(dp557
g14
S'4.5'
p558
sg16
S'2012-12-05'
p559
sba(iyelp_data_provider
YelpReview
p560
(dp561
g14
S'5.0'
p562
sg16
S'2010-10-25'
p563
sba(iyelp_data_provider
YelpReview
p564
(dp565
g14
S'1.0'
p566
sg16
S'2011-10-12'
p567
sba(iyelp_data_provider
YelpReview
p568
(dp569
g14
S'5.0'
p570
sg16
S'2008-04-12'
p571
sba(iyelp_data_provider
YelpReview
p572
(dp573
g14
S'5.0'
p574
sg16
S'2010-09-28'
p575
sba(iyelp_data_provider
YelpReview
p576
(dp577
g14
S'4.0'
p578
sg16
S'2007-12-13'
p579
sba(iyelp_data_provider
YelpReview
p580
(dp581
g14
S'5.0'
p582
sg16
S'2010-11-24'
p583
sbasg166
I01
sg167
F40.7543551
sg168
S'$$$'
p584
sg170
VN1N9yK3QnRrtxDJbDLap7w
p585
sba.