(lp0
(iyelp_data_provider
YelpBusiness
p1
(dp2
S'review_count'
p3
I460
sS'name'
p4
VCasellula
p5
sS'url'
p6
Vhttp://www.yelp.com/biz/casellula-new-york
p7
sS'avg_rating'
p8
F4.0
sS'longitude'
p9
F-73.9883758
sS'reviews'
p10
(lp11
(iyelp_data_provider
YelpReview
p12
(dp13
S'rating'
p14
S'4.0'
p15
sS'pub_date'
p16
S'2012-12-09'
p17
sba(iyelp_data_provider
YelpReview
p18
(dp19
g14
S'5.0'
p20
sg16
S'2012-11-27'
p21
sba(iyelp_data_provider
YelpReview
p22
(dp23
g14
S'4.0'
p24
sg16
S'2012-11-10'
p25
sba(iyelp_data_provider
YelpReview
p26
(dp27
g14
S'5.0'
p28
sg16
S'2012-10-29'
p29
sba(iyelp_data_provider
YelpReview
p30
(dp31
g14
S'3.0'
p32
sg16
S'2012-10-20'
p33
sba(iyelp_data_provider
YelpReview
p34
(dp35
g14
S'4.0'
p36
sg16
S'2012-10-14'
p37
sba(iyelp_data_provider
YelpReview
p38
(dp39
g14
S'5.0'
p40
sg16
S'2012-09-22'
p41
sba(iyelp_data_provider
YelpReview
p42
(dp43
g14
S'3.0'
p44
sg16
S'2012-11-20'
p45
sba(iyelp_data_provider
YelpReview
p46
(dp47
g14
S'5.0'
p48
sg16
S'2012-10-04'
p49
sba(iyelp_data_provider
YelpReview
p50
(dp51
g14
S'4.0'
p52
sg16
S'2012-11-05'
p53
sba(iyelp_data_provider
YelpReview
p54
(dp55
g14
S'4.0'
p56
sg16
S'2012-09-25'
p57
sba(iyelp_data_provider
YelpReview
p58
(dp59
g14
S'5.0'
p60
sg16
S'2012-10-01'
p61
sba(iyelp_data_provider
YelpReview
p62
(dp63
g14
S'4.0'
p64
sg16
S'2012-11-11'
p65
sba(iyelp_data_provider
YelpReview
p66
(dp67
g14
S'5.0'
p68
sg16
S'2012-11-03'
p69
sba(iyelp_data_provider
YelpReview
p70
(dp71
g14
S'4.0'
p72
sg16
S'2012-09-02'
p73
sba(iyelp_data_provider
YelpReview
p74
(dp75
g14
S'4.0'
p76
sg16
S'2012-07-15'
p77
sba(iyelp_data_provider
YelpReview
p78
(dp79
g14
S'3.0'
p80
sg16
S'2012-07-18'
p81
sba(iyelp_data_provider
YelpReview
p82
(dp83
g14
S'5.0'
p84
sg16
S'2012-10-03'
p85
sba(iyelp_data_provider
YelpReview
p86
(dp87
g14
S'5.0'
p88
sg16
S'2012-09-13'
p89
sba(iyelp_data_provider
YelpReview
p90
(dp91
g14
S'2.0'
p92
sg16
S'2012-07-10'
p93
sba(iyelp_data_provider
YelpReview
p94
(dp95
g14
S'4.0'
p96
sg16
S'2012-07-08'
p97
sba(iyelp_data_provider
YelpReview
p98
(dp99
g14
S'5.0'
p100
sg16
S'2012-06-04'
p101
sba(iyelp_data_provider
YelpReview
p102
(dp103
g14
S'2.0'
p104
sg16
S'2012-07-05'
p105
sba(iyelp_data_provider
YelpReview
p106
(dp107
g14
S'5.0'
p108
sg16
S'2012-06-02'
p109
sba(iyelp_data_provider
YelpReview
p110
(dp111
g14
S'3.0'
p112
sg16
S'2012-08-30'
p113
sba(iyelp_data_provider
YelpReview
p114
(dp115
g14
S'3.0'
p116
sg16
S'2012-06-24'
p117
sba(iyelp_data_provider
YelpReview
p118
(dp119
g14
S'4.0'
p120
sg16
S'2012-04-16'
p121
sba(iyelp_data_provider
YelpReview
p122
(dp123
g14
S'5.0'
p124
sg16
S'2012-11-17'
p125
sba(iyelp_data_provider
YelpReview
p126
(dp127
g14
S'5.0'
p128
sg16
S'2012-03-31'
p129
sba(iyelp_data_provider
YelpReview
p130
(dp131
g14
S'4.0'
p132
sg16
S'2012-03-25'
p133
sba(iyelp_data_provider
YelpReview
p134
(dp135
g14
S'5.0'
p136
sg16
S'2012-06-22'
p137
sba(iyelp_data_provider
YelpReview
p138
(dp139
g14
S'4.0'
p140
sg16
S'2012-02-09'
p141
sba(iyelp_data_provider
YelpReview
p142
(dp143
g14
S'4.0'
p144
sg16
S'2012-03-24'
p145
sba(iyelp_data_provider
YelpReview
p146
(dp147
g14
S'5.0'
p148
sg16
S'2012-03-15'
p149
sba(iyelp_data_provider
YelpReview
p150
(dp151
g14
S'5.0'
p152
sg16
S'2012-01-31'
p153
sba(iyelp_data_provider
YelpReview
p154
(dp155
g14
S'5.0'
p156
sg16
S'2012-04-12'
p157
sba(iyelp_data_provider
YelpReview
p158
(dp159
g14
S'4.0'
p160
sg16
S'2012-06-15'
p161
sba(iyelp_data_provider
YelpReview
p162
(dp163
g14
S'5.0'
p164
sg16
S'2012-06-12'
p165
sba(iyelp_data_provider
YelpReview
p166
(dp167
g14
S'3.0'
p168
sg16
S'2012-09-02'
p169
sba(iyelp_data_provider
YelpReview
p170
(dp171
g14
S'5.0'
p172
sg16
S'2012-04-01'
p173
sba(iyelp_data_provider
YelpReview
p174
(dp175
g14
S'4.0'
p176
sg16
S'2012-09-14'
p177
sba(iyelp_data_provider
YelpReview
p178
(dp179
g14
S'5.0'
p180
sg16
S'2012-01-24'
p181
sba(iyelp_data_provider
YelpReview
p182
(dp183
g14
S'5.0'
p184
sg16
S'2012-05-31'
p185
sba(iyelp_data_provider
YelpReview
p186
(dp187
g14
S'4.0'
p188
sg16
S'2012-02-28'
p189
sba(iyelp_data_provider
YelpReview
p190
(dp191
g14
S'5.0'
p192
sg16
S'2012-02-16'
p193
sba(iyelp_data_provider
YelpReview
p194
(dp195
g14
S'5.0'
p196
sg16
S'2012-08-27'
p197
sba(iyelp_data_provider
YelpReview
p198
(dp199
g14
S'5.0'
p200
sg16
S'2012-04-19'
p201
sba(iyelp_data_provider
YelpReview
p202
(dp203
g14
S'4.0'
p204
sg16
S'2012-01-31'
p205
sba(iyelp_data_provider
YelpReview
p206
(dp207
g14
S'4.0'
p208
sg16
S'2012-02-21'
p209
sba(iyelp_data_provider
YelpReview
p210
(dp211
g14
S'5.0'
p212
sg16
S'2011-12-17'
p213
sba(iyelp_data_provider
YelpReview
p214
(dp215
g14
S'4.0'
p216
sg16
S'2012-02-12'
p217
sba(iyelp_data_provider
YelpReview
p218
(dp219
g14
S'5.0'
p220
sg16
S'2011-12-09'
p221
sba(iyelp_data_provider
YelpReview
p222
(dp223
g14
S'5.0'
p224
sg16
S'2012-04-06'
p225
sba(iyelp_data_provider
YelpReview
p226
(dp227
g14
S'5.0'
p228
sg16
S'2012-03-05'
p229
sba(iyelp_data_provider
YelpReview
p230
(dp231
g14
S'3.0'
p232
sg16
S'2012-01-15'
p233
sba(iyelp_data_provider
YelpReview
p234
(dp235
g14
S'5.0'
p236
sg16
S'2012-01-15'
p237
sba(iyelp_data_provider
YelpReview
p238
(dp239
g14
S'5.0'
p240
sg16
S'2012-01-19'
p241
sba(iyelp_data_provider
YelpReview
p242
(dp243
g14
S'5.0'
p244
sg16
S'2011-11-07'
p245
sba(iyelp_data_provider
YelpReview
p246
(dp247
g14
S'5.0'
p248
sg16
S'2011-11-29'
p249
sba(iyelp_data_provider
YelpReview
p250
(dp251
g14
S'4.0'
p252
sg16
S'2012-07-25'
p253
sba(iyelp_data_provider
YelpReview
p254
(dp255
g14
S'4.0'
p256
sg16
S'2012-01-30'
p257
sba(iyelp_data_provider
YelpReview
p258
(dp259
g14
S'4.0'
p260
sg16
S'2012-01-23'
p261
sba(iyelp_data_provider
YelpReview
p262
(dp263
g14
S'5.0'
p264
sg16
S'2012-08-25'
p265
sba(iyelp_data_provider
YelpReview
p266
(dp267
g14
S'5.0'
p268
sg16
S'2012-03-12'
p269
sba(iyelp_data_provider
YelpReview
p270
(dp271
g14
S'5.0'
p272
sg16
S'2011-10-10'
p273
sba(iyelp_data_provider
YelpReview
p274
(dp275
g14
S'5.0'
p276
sg16
S'2012-02-08'
p277
sba(iyelp_data_provider
YelpReview
p278
(dp279
g14
S'4.0'
p280
sg16
S'2012-02-02'
p281
sba(iyelp_data_provider
YelpReview
p282
(dp283
g14
S'5.0'
p284
sg16
S'2011-11-23'
p285
sba(iyelp_data_provider
YelpReview
p286
(dp287
g14
S'4.0'
p288
sg16
S'2011-12-11'
p289
sba(iyelp_data_provider
YelpReview
p290
(dp291
g14
S'3.0'
p292
sg16
S'2011-12-28'
p293
sba(iyelp_data_provider
YelpReview
p294
(dp295
g14
S'5.0'
p296
sg16
S'2012-07-14'
p297
sba(iyelp_data_provider
YelpReview
p298
(dp299
g14
S'3.0'
p300
sg16
S'2012-03-08'
p301
sba(iyelp_data_provider
YelpReview
p302
(dp303
g14
S'5.0'
p304
sg16
S'2012-01-28'
p305
sba(iyelp_data_provider
YelpReview
p306
(dp307
g14
S'4.0'
p308
sg16
S'2012-08-09'
p309
sba(iyelp_data_provider
YelpReview
p310
(dp311
g14
S'5.0'
p312
sg16
S'2012-01-10'
p313
sba(iyelp_data_provider
YelpReview
p314
(dp315
g14
S'5.0'
p316
sg16
S'2012-06-28'
p317
sba(iyelp_data_provider
YelpReview
p318
(dp319
g14
S'5.0'
p320
sg16
S'2011-08-06'
p321
sba(iyelp_data_provider
YelpReview
p322
(dp323
g14
S'5.0'
p324
sg16
S'2012-02-26'
p325
sba(iyelp_data_provider
YelpReview
p326
(dp327
g14
S'5.0'
p328
sg16
S'2011-12-22'
p329
sba(iyelp_data_provider
YelpReview
p330
(dp331
g14
S'5.0'
p332
sg16
S'2011-11-07'
p333
sba(iyelp_data_provider
YelpReview
p334
(dp335
g14
S'4.0'
p336
sg16
S'2011-11-17'
p337
sba(iyelp_data_provider
YelpReview
p338
(dp339
g14
S'5.0'
p340
sg16
S'2012-01-22'
p341
sba(iyelp_data_provider
YelpReview
p342
(dp343
g14
S'4.0'
p344
sg16
S'2011-10-24'
p345
sba(iyelp_data_provider
YelpReview
p346
(dp347
g14
S'4.0'
p348
sg16
S'2011-12-18'
p349
sba(iyelp_data_provider
YelpReview
p350
(dp351
g14
S'5.0'
p352
sg16
S'2011-08-03'
p353
sba(iyelp_data_provider
YelpReview
p354
(dp355
g14
S'4.0'
p356
sg16
S'2011-10-10'
p357
sba(iyelp_data_provider
YelpReview
p358
(dp359
g14
S'4.0'
p360
sg16
S'2011-10-12'
p361
sba(iyelp_data_provider
YelpReview
p362
(dp363
g14
S'2.0'
p364
sg16
S'2012-06-04'
p365
sba(iyelp_data_provider
YelpReview
p366
(dp367
g14
S'4.0'
p368
sg16
S'2011-09-13'
p369
sba(iyelp_data_provider
YelpReview
p370
(dp371
g14
S'5.0'
p372
sg16
S'2011-07-24'
p373
sba(iyelp_data_provider
YelpReview
p374
(dp375
g14
S'4.0'
p376
sg16
S'2011-10-03'
p377
sba(iyelp_data_provider
YelpReview
p378
(dp379
g14
S'4.0'
p380
sg16
S'2011-10-24'
p381
sba(iyelp_data_provider
YelpReview
p382
(dp383
g14
S'4.0'
p384
sg16
S'2011-10-23'
p385
sba(iyelp_data_provider
YelpReview
p386
(dp387
g14
S'3.0'
p388
sg16
S'2011-10-19'
p389
sba(iyelp_data_provider
YelpReview
p390
(dp391
g14
S'4.0'
p392
sg16
S'2011-06-14'
p393
sba(iyelp_data_provider
YelpReview
p394
(dp395
g14
S'5.0'
p396
sg16
S'2011-04-24'
p397
sba(iyelp_data_provider
YelpReview
p398
(dp399
g14
S'5.0'
p400
sg16
S'2011-12-27'
p401
sba(iyelp_data_provider
YelpReview
p402
(dp403
g14
S'5.0'
p404
sg16
S'2011-06-22'
p405
sba(iyelp_data_provider
YelpReview
p406
(dp407
g14
S'4.0'
p408
sg16
S'2012-04-08'
p409
sba(iyelp_data_provider
YelpReview
p410
(dp411
g14
S'5.0'
p412
sg16
S'2012-05-19'
p413
sba(iyelp_data_provider
YelpReview
p414
(dp415
g14
S'4.0'
p416
sg16
S'2011-11-03'
p417
sba(iyelp_data_provider
YelpReview
p418
(dp419
g14
S'3.0'
p420
sg16
S'2011-09-01'
p421
sba(iyelp_data_provider
YelpReview
p422
(dp423
g14
S'2.0'
p424
sg16
S'2011-05-12'
p425
sba(iyelp_data_provider
YelpReview
p426
(dp427
g14
S'4.0'
p428
sg16
S'2011-03-09'
p429
sba(iyelp_data_provider
YelpReview
p430
(dp431
g14
S'4.0'
p432
sg16
S'2012-06-27'
p433
sba(iyelp_data_provider
YelpReview
p434
(dp435
g14
S'5.0'
p436
sg16
S'2012-02-09'
p437
sba(iyelp_data_provider
YelpReview
p438
(dp439
g14
S'5.0'
p440
sg16
S'2012-07-19'
p441
sba(iyelp_data_provider
YelpReview
p442
(dp443
g14
S'5.0'
p444
sg16
S'2011-03-05'
p445
sba(iyelp_data_provider
YelpReview
p446
(dp447
g14
S'3.0'
p448
sg16
S'2011-11-14'
p449
sba(iyelp_data_provider
YelpReview
p450
(dp451
g14
S'3.0'
p452
sg16
S'2012-05-30'
p453
sba(iyelp_data_provider
YelpReview
p454
(dp455
g14
S'5.0'
p456
sg16
S'2012-09-12'
p457
sba(iyelp_data_provider
YelpReview
p458
(dp459
g14
S'4.0'
p460
sg16
S'2012-02-27'
p461
sba(iyelp_data_provider
YelpReview
p462
(dp463
g14
S'5.0'
p464
sg16
S'2012-04-02'
p465
sba(iyelp_data_provider
YelpReview
p466
(dp467
g14
S'4.0'
p468
sg16
S'2011-03-25'
p469
sba(iyelp_data_provider
YelpReview
p470
(dp471
g14
S'3.0'
p472
sg16
S'2011-05-21'
p473
sba(iyelp_data_provider
YelpReview
p474
(dp475
g14
S'2.0'
p476
sg16
S'2011-09-09'
p477
sba(iyelp_data_provider
YelpReview
p478
(dp479
g14
S'4.0'
p480
sg16
S'2011-02-18'
p481
sba(iyelp_data_provider
YelpReview
p482
(dp483
g14
S'5.0'
p484
sg16
S'2012-06-03'
p485
sba(iyelp_data_provider
YelpReview
p486
(dp487
g14
S'5.0'
p488
sg16
S'2011-02-23'
p489
sba(iyelp_data_provider
YelpReview
p490
(dp491
g14
S'4.0'
p492
sg16
S'2011-02-27'
p493
sba(iyelp_data_provider
YelpReview
p494
(dp495
g14
S'4.0'
p496
sg16
S'2012-09-05'
p497
sba(iyelp_data_provider
YelpReview
p498
(dp499
g14
S'5.0'
p500
sg16
S'2010-07-19'
p501
sba(iyelp_data_provider
YelpReview
p502
(dp503
g14
S'4.0'
p504
sg16
S'2010-05-05'
p505
sba(iyelp_data_provider
YelpReview
p506
(dp507
g14
S'5.0'
p508
sg16
S'2009-04-27'
p509
sba(iyelp_data_provider
YelpReview
p510
(dp511
g14
S'5.0'
p512
sg16
S'2009-01-21'
p513
sba(iyelp_data_provider
YelpReview
p514
(dp515
g14
S'5.0'
p516
sg16
S'2009-09-25'
p517
sba(iyelp_data_provider
YelpReview
p518
(dp519
g14
S'5.0'
p520
sg16
S'2007-11-03'
p521
sba(iyelp_data_provider
YelpReview
p522
(dp523
g14
S'5.0'
p524
sg16
S'2011-02-12'
p525
sba(iyelp_data_provider
YelpReview
p526
(dp527
g14
S'3.0'
p528
sg16
S'2007-12-20'
p529
sba(iyelp_data_provider
YelpReview
p530
(dp531
g14
S'5.0'
p532
sg16
S'2012-05-17'
p533
sba(iyelp_data_provider
YelpReview
p534
(dp535
g14
S'2.0'
p536
sg16
S'2009-06-19'
p537
sba(iyelp_data_provider
YelpReview
p538
(dp539
g14
S'5.0'
p540
sg16
S'2012-04-08'
p541
sba(iyelp_data_provider
YelpReview
p542
(dp543
g14
S'4.0'
p544
sg16
S'2010-10-22'
p545
sba(iyelp_data_provider
YelpReview
p546
(dp547
g14
S'5.0'
p548
sg16
S'2010-06-30'
p549
sba(iyelp_data_provider
YelpReview
p550
(dp551
g14
S'4.0'
p552
sg16
S'2009-11-22'
p553
sba(iyelp_data_provider
YelpReview
p554
(dp555
g14
S'4.0'
p556
sg16
S'2009-06-26'
p557
sba(iyelp_data_provider
YelpReview
p558
(dp559
g14
S'5.0'
p560
sg16
S'2012-08-20'
p561
sba(iyelp_data_provider
YelpReview
p562
(dp563
g14
S'5.0'
p564
sg16
S'2007-07-03'
p565
sba(iyelp_data_provider
YelpReview
p566
(dp567
g14
S'5.0'
p568
sg16
S'2009-02-09'
p569
sba(iyelp_data_provider
YelpReview
p570
(dp571
g14
S'5.0'
p572
sg16
S'2012-05-11'
p573
sba(iyelp_data_provider
YelpReview
p574
(dp575
g14
S'5.0'
p576
sg16
S'2009-10-09'
p577
sba(iyelp_data_provider
YelpReview
p578
(dp579
g14
S'5.0'
p580
sg16
S'2008-02-14'
p581
sba(iyelp_data_provider
YelpReview
p582
(dp583
g14
S'4.0'
p584
sg16
S'2010-09-21'
p585
sba(iyelp_data_provider
YelpReview
p586
(dp587
g14
S'4.0'
p588
sg16
S'2010-10-10'
p589
sba(iyelp_data_provider
YelpReview
p590
(dp591
g14
S'4.0'
p592
sg16
S'2009-05-07'
p593
sba(iyelp_data_provider
YelpReview
p594
(dp595
g14
S'4.0'
p596
sg16
S'2012-02-29'
p597
sba(iyelp_data_provider
YelpReview
p598
(dp599
g14
S'4.0'
p600
sg16
S'2008-01-21'
p601
sba(iyelp_data_provider
YelpReview
p602
(dp603
g14
S'5.0'
p604
sg16
S'2008-02-09'
p605
sba(iyelp_data_provider
YelpReview
p606
(dp607
g14
S'5.0'
p608
sg16
S'2008-05-23'
p609
sba(iyelp_data_provider
YelpReview
p610
(dp611
g14
S'5.0'
p612
sg16
S'2011-01-22'
p613
sba(iyelp_data_provider
YelpReview
p614
(dp615
g14
S'5.0'
p616
sg16
S'2012-03-28'
p617
sba(iyelp_data_provider
YelpReview
p618
(dp619
g14
S'4.0'
p620
sg16
S'2010-08-01'
p621
sba(iyelp_data_provider
YelpReview
p622
(dp623
g14
S'3.0'
p624
sg16
S'2011-05-09'
p625
sba(iyelp_data_provider
YelpReview
p626
(dp627
g14
S'4.0'
p628
sg16
S'2010-11-23'
p629
sba(iyelp_data_provider
YelpReview
p630
(dp631
g14
S'3.0'
p632
sg16
S'2011-08-18'
p633
sba(iyelp_data_provider
YelpReview
p634
(dp635
g14
S'4.0'
p636
sg16
S'2008-11-18'
p637
sba(iyelp_data_provider
YelpReview
p638
(dp639
g14
S'5.0'
p640
sg16
S'2008-01-05'
p641
sba(iyelp_data_provider
YelpReview
p642
(dp643
g14
S'5.0'
p644
sg16
S'2009-09-29'
p645
sba(iyelp_data_provider
YelpReview
p646
(dp647
g14
S'5.0'
p648
sg16
S'2009-10-11'
p649
sba(iyelp_data_provider
YelpReview
p650
(dp651
g14
S'5.0'
p652
sg16
S'2009-03-24'
p653
sba(iyelp_data_provider
YelpReview
p654
(dp655
g14
S'4.0'
p656
sg16
S'2009-12-25'
p657
sba(iyelp_data_provider
YelpReview
p658
(dp659
g14
S'4.0'
p660
sg16
S'2009-10-25'
p661
sba(iyelp_data_provider
YelpReview
p662
(dp663
g14
S'4.0'
p664
sg16
S'2011-06-21'
p665
sba(iyelp_data_provider
YelpReview
p666
(dp667
g14
S'5.0'
p668
sg16
S'2011-04-19'
p669
sba(iyelp_data_provider
YelpReview
p670
(dp671
g14
S'3.0'
p672
sg16
S'2010-02-20'
p673
sba(iyelp_data_provider
YelpReview
p674
(dp675
g14
S'4.0'
p676
sg16
S'2012-04-06'
p677
sba(iyelp_data_provider
YelpReview
p678
(dp679
g14
S'4.0'
p680
sg16
S'2009-03-24'
p681
sba(iyelp_data_provider
YelpReview
p682
(dp683
g14
S'4.0'
p684
sg16
S'2008-04-14'
p685
sba(iyelp_data_provider
YelpReview
p686
(dp687
g14
S'4.0'
p688
sg16
S'2011-04-12'
p689
sba(iyelp_data_provider
YelpReview
p690
(dp691
g14
S'5.0'
p692
sg16
S'2008-07-14'
p693
sba(iyelp_data_provider
YelpReview
p694
(dp695
g14
S'4.0'
p696
sg16
S'2010-04-19'
p697
sba(iyelp_data_provider
YelpReview
p698
(dp699
g14
S'5.0'
p700
sg16
S'2010-06-27'
p701
sba(iyelp_data_provider
YelpReview
p702
(dp703
g14
S'5.0'
p704
sg16
S'2012-04-03'
p705
sba(iyelp_data_provider
YelpReview
p706
(dp707
g14
S'4.0'
p708
sg16
S'2008-08-29'
p709
sba(iyelp_data_provider
YelpReview
p710
(dp711
g14
S'3.0'
p712
sg16
S'2009-07-23'
p713
sba(iyelp_data_provider
YelpReview
p714
(dp715
g14
S'5.0'
p716
sg16
S'2009-06-04'
p717
sba(iyelp_data_provider
YelpReview
p718
(dp719
g14
S'4.0'
p720
sg16
S'2009-07-16'
p721
sba(iyelp_data_provider
YelpReview
p722
(dp723
g14
S'5.0'
p724
sg16
S'2009-11-22'
p725
sba(iyelp_data_provider
YelpReview
p726
(dp727
g14
S'5.0'
p728
sg16
S'2011-03-27'
p729
sba(iyelp_data_provider
YelpReview
p730
(dp731
g14
S'3.0'
p732
sg16
S'2010-02-05'
p733
sba(iyelp_data_provider
YelpReview
p734
(dp735
g14
S'4.0'
p736
sg16
S'2010-04-22'
p737
sba(iyelp_data_provider
YelpReview
p738
(dp739
g14
S'4.0'
p740
sg16
S'2011-06-07'
p741
sba(iyelp_data_provider
YelpReview
p742
(dp743
g14
S'4.0'
p744
sg16
S'2012-01-30'
p745
sba(iyelp_data_provider
YelpReview
p746
(dp747
g14
S'4.0'
p748
sg16
S'2009-09-26'
p749
sba(iyelp_data_provider
YelpReview
p750
(dp751
g14
S'5.0'
p752
sg16
S'2007-09-18'
p753
sba(iyelp_data_provider
YelpReview
p754
(dp755
g14
S'4.0'
p756
sg16
S'2007-08-28'
p757
sba(iyelp_data_provider
YelpReview
p758
(dp759
g14
S'5.0'
p760
sg16
S'2008-06-02'
p761
sba(iyelp_data_provider
YelpReview
p762
(dp763
g14
S'5.0'
p764
sg16
S'2010-09-09'
p765
sba(iyelp_data_provider
YelpReview
p766
(dp767
g14
S'4.0'
p768
sg16
S'2011-03-09'
p769
sba(iyelp_data_provider
YelpReview
p770
(dp771
g14
S'5.0'
p772
sg16
S'2012-07-31'
p773
sba(iyelp_data_provider
YelpReview
p774
(dp775
g14
S'4.0'
p776
sg16
S'2008-04-07'
p777
sba(iyelp_data_provider
YelpReview
p778
(dp779
g14
S'4.0'
p780
sg16
S'2011-03-08'
p781
sba(iyelp_data_provider
YelpReview
p782
(dp783
g14
S'4.0'
p784
sg16
S'2008-09-29'
p785
sba(iyelp_data_provider
YelpReview
p786
(dp787
g14
S'4.0'
p788
sg16
S'2010-06-29'
p789
sba(iyelp_data_provider
YelpReview
p790
(dp791
g14
S'5.0'
p792
sg16
S'2011-03-04'
p793
sba(iyelp_data_provider
YelpReview
p794
(dp795
g14
S'3.0'
p796
sg16
S'2008-12-18'
p797
sba(iyelp_data_provider
YelpReview
p798
(dp799
g14
S'5.0'
p800
sg16
S'2009-09-23'
p801
sba(iyelp_data_provider
YelpReview
p802
(dp803
g14
S'4.0'
p804
sg16
S'2010-01-05'
p805
sba(iyelp_data_provider
YelpReview
p806
(dp807
g14
S'4.0'
p808
sg16
S'2011-02-22'
p809
sba(iyelp_data_provider
YelpReview
p810
(dp811
g14
S'5.0'
p812
sg16
S'2009-08-10'
p813
sba(iyelp_data_provider
YelpReview
p814
(dp815
g14
S'4.0'
p816
sg16
S'2010-01-03'
p817
sba(iyelp_data_provider
YelpReview
p818
(dp819
g14
S'4.0'
p820
sg16
S'2010-03-26'
p821
sba(iyelp_data_provider
YelpReview
p822
(dp823
g14
S'3.0'
p824
sg16
S'2011-12-12'
p825
sba(iyelp_data_provider
YelpReview
p826
(dp827
g14
S'5.0'
p828
sg16
S'2008-08-15'
p829
sba(iyelp_data_provider
YelpReview
p830
(dp831
g14
S'4.0'
p832
sg16
S'2009-03-02'
p833
sba(iyelp_data_provider
YelpReview
p834
(dp835
g14
S'4.0'
p836
sg16
S'2008-07-15'
p837
sba(iyelp_data_provider
YelpReview
p838
(dp839
g14
S'5.0'
p840
sg16
S'2008-11-27'
p841
sba(iyelp_data_provider
YelpReview
p842
(dp843
g14
S'4.0'
p844
sg16
S'2009-01-06'
p845
sba(iyelp_data_provider
YelpReview
p846
(dp847
g14
S'4.0'
p848
sg16
S'2009-11-18'
p849
sba(iyelp_data_provider
YelpReview
p850
(dp851
g14
S'4.0'
p852
sg16
S'2011-04-21'
p853
sba(iyelp_data_provider
YelpReview
p854
(dp855
g14
S'5.0'
p856
sg16
S'2010-04-28'
p857
sba(iyelp_data_provider
YelpReview
p858
(dp859
g14
S'4.0'
p860
sg16
S'2010-06-30'
p861
sba(iyelp_data_provider
YelpReview
p862
(dp863
g14
S'4.0'
p864
sg16
S'2012-03-28'
p865
sba(iyelp_data_provider
YelpReview
p866
(dp867
g14
S'3.0'
p868
sg16
S'2012-02-24'
p869
sba(iyelp_data_provider
YelpReview
p870
(dp871
g14
S'4.0'
p872
sg16
S'2010-08-18'
p873
sba(iyelp_data_provider
YelpReview
p874
(dp875
g14
S'4.0'
p876
sg16
S'2011-03-01'
p877
sba(iyelp_data_provider
YelpReview
p878
(dp879
g14
S'4.0'
p880
sg16
S'2010-02-23'
p881
sba(iyelp_data_provider
YelpReview
p882
(dp883
g14
S'4.0'
p884
sg16
S'2010-09-20'
p885
sba(iyelp_data_provider
YelpReview
p886
(dp887
g14
S'4.0'
p888
sg16
S'2009-08-11'
p889
sba(iyelp_data_provider
YelpReview
p890
(dp891
g14
S'5.0'
p892
sg16
S'2009-09-29'
p893
sba(iyelp_data_provider
YelpReview
p894
(dp895
g14
S'3.0'
p896
sg16
S'2010-01-07'
p897
sba(iyelp_data_provider
YelpReview
p898
(dp899
g14
S'5.0'
p900
sg16
S'2012-02-16'
p901
sba(iyelp_data_provider
YelpReview
p902
(dp903
g14
S'5.0'
p904
sg16
S'2010-03-04'
p905
sba(iyelp_data_provider
YelpReview
p906
(dp907
g14
S'5.0'
p908
sg16
S'2011-01-01'
p909
sba(iyelp_data_provider
YelpReview
p910
(dp911
g14
S'4.0'
p912
sg16
S'2012-02-13'
p913
sba(iyelp_data_provider
YelpReview
p914
(dp915
g14
S'5.0'
p916
sg16
S'2011-02-28'
p917
sba(iyelp_data_provider
YelpReview
p918
(dp919
g14
S'4.0'
p920
sg16
S'2011-03-04'
p921
sba(iyelp_data_provider
YelpReview
p922
(dp923
g14
S'5.0'
p924
sg16
S'2008-02-02'
p925
sba(iyelp_data_provider
YelpReview
p926
(dp927
g14
S'5.0'
p928
sg16
S'2009-04-22'
p929
sba(iyelp_data_provider
YelpReview
p930
(dp931
g14
S'5.0'
p932
sg16
S'2009-06-25'
p933
sba(iyelp_data_provider
YelpReview
p934
(dp935
g14
S'5.0'
p936
sg16
S'2010-02-27'
p937
sba(iyelp_data_provider
YelpReview
p938
(dp939
g14
S'3.0'
p940
sg16
S'2010-05-11'
p941
sba(iyelp_data_provider
YelpReview
p942
(dp943
g14
S'5.0'
p944
sg16
S'2010-05-31'
p945
sba(iyelp_data_provider
YelpReview
p946
(dp947
g14
S'5.0'
p948
sg16
S'2010-07-15'
p949
sba(iyelp_data_provider
YelpReview
p950
(dp951
g14
S'5.0'
p952
sg16
S'2010-07-23'
p953
sba(iyelp_data_provider
YelpReview
p954
(dp955
g14
S'4.0'
p956
sg16
S'2010-08-06'
p957
sba(iyelp_data_provider
YelpReview
p958
(dp959
g14
S'4.0'
p960
sg16
S'2010-09-06'
p961
sba(iyelp_data_provider
YelpReview
p962
(dp963
g14
S'4.0'
p964
sg16
S'2010-11-05'
p965
sba(iyelp_data_provider
YelpReview
p966
(dp967
g14
S'4.0'
p968
sg16
S'2011-07-23'
p969
sba(iyelp_data_provider
YelpReview
p970
(dp971
g14
S'5.0'
p972
sg16
S'2011-07-23'
p973
sba(iyelp_data_provider
YelpReview
p974
(dp975
g14
S'4.0'
p976
sg16
S'2011-01-07'
p977
sba(iyelp_data_provider
YelpReview
p978
(dp979
g14
S'4.0'
p980
sg16
S'2009-05-22'
p981
sba(iyelp_data_provider
YelpReview
p982
(dp983
g14
S'5.0'
p984
sg16
S'2009-06-14'
p985
sba(iyelp_data_provider
YelpReview
p986
(dp987
g14
S'5.0'
p988
sg16
S'2009-10-26'
p989
sba(iyelp_data_provider
YelpReview
p990
(dp991
g14
S'3.0'
p992
sg16
S'2010-02-11'
p993
sba(iyelp_data_provider
YelpReview
p994
(dp995
g14
S'4.0'
p996
sg16
S'2010-03-17'
p997
sba(iyelp_data_provider
YelpReview
p998
(dp999
g14
S'5.0'
p1000
sg16
S'2012-02-21'
p1001
sba(iyelp_data_provider
YelpReview
p1002
(dp1003
g14
S'5.0'
p1004
sg16
S'2012-02-19'
p1005
sba(iyelp_data_provider
YelpReview
p1006
(dp1007
g14
S'5.0'
p1008
sg16
S'2008-12-04'
p1009
sba(iyelp_data_provider
YelpReview
p1010
(dp1011
g14
S'3.0'
p1012
sg16
S'2008-12-20'
p1013
sba(iyelp_data_provider
YelpReview
p1014
(dp1015
g14
S'4.0'
p1016
sg16
S'2009-01-11'
p1017
sba(iyelp_data_provider
YelpReview
p1018
(dp1019
g14
S'4.0'
p1020
sg16
S'2010-03-10'
p1021
sba(iyelp_data_provider
YelpReview
p1022
(dp1023
g14
S'5.0'
p1024
sg16
S'2010-05-27'
p1025
sba(iyelp_data_provider
YelpReview
p1026
(dp1027
g14
S'4.0'
p1028
sg16
S'2011-04-23'
p1029
sba(iyelp_data_provider
YelpReview
p1030
(dp1031
g14
S'4.0'
p1032
sg16
S'2008-11-01'
p1033
sba(iyelp_data_provider
YelpReview
p1034
(dp1035
g14
S'4.0'
p1036
sg16
S'2008-12-10'
p1037
sba(iyelp_data_provider
YelpReview
p1038
(dp1039
g14
S'4.0'
p1040
sg16
S'2009-01-16'
p1041
sba(iyelp_data_provider
YelpReview
p1042
(dp1043
g14
S'4.0'
p1044
sg16
S'2009-08-25'
p1045
sba(iyelp_data_provider
YelpReview
p1046
(dp1047
g14
S'5.0'
p1048
sg16
S'2011-12-11'
p1049
sba(iyelp_data_provider
YelpReview
p1050
(dp1051
g14
S'4.0'
p1052
sg16
S'2011-02-26'
p1053
sba(iyelp_data_provider
YelpReview
p1054
(dp1055
g14
S'4.0'
p1056
sg16
S'2009-06-09'
p1057
sba(iyelp_data_provider
YelpReview
p1058
(dp1059
g14
S'4.0'
p1060
sg16
S'2009-08-16'
p1061
sba(iyelp_data_provider
YelpReview
p1062
(dp1063
g14
S'4.0'
p1064
sg16
S'2009-10-07'
p1065
sba(iyelp_data_provider
YelpReview
p1066
(dp1067
g14
S'5.0'
p1068
sg16
S'2010-01-08'
p1069
sba(iyelp_data_provider
YelpReview
p1070
(dp1071
g14
S'4.0'
p1072
sg16
S'2010-01-17'
p1073
sba(iyelp_data_provider
YelpReview
p1074
(dp1075
g14
S'5.0'
p1076
sg16
S'2010-05-09'
p1077
sba(iyelp_data_provider
YelpReview
p1078
(dp1079
g14
S'4.0'
p1080
sg16
S'2010-09-15'
p1081
sba(iyelp_data_provider
YelpReview
p1082
(dp1083
g14
S'4.0'
p1084
sg16
S'2010-09-30'
p1085
sba(iyelp_data_provider
YelpReview
p1086
(dp1087
g14
S'5.0'
p1088
sg16
S'2011-10-10'
p1089
sba(iyelp_data_provider
YelpReview
p1090
(dp1091
g14
S'4.0'
p1092
sg16
S'2011-01-11'
p1093
sba(iyelp_data_provider
YelpReview
p1094
(dp1095
g14
S'5.0'
p1096
sg16
S'2010-12-15'
p1097
sba(iyelp_data_provider
YelpReview
p1098
(dp1099
g14
S'5.0'
p1100
sg16
S'2008-03-16'
p1101
sba(iyelp_data_provider
YelpReview
p1102
(dp1103
g14
S'2.0'
p1104
sg16
S'2008-09-02'
p1105
sba(iyelp_data_provider
YelpReview
p1106
(dp1107
g14
S'4.0'
p1108
sg16
S'2009-10-08'
p1109
sba(iyelp_data_provider
YelpReview
p1110
(dp1111
g14
S'3.0'
p1112
sg16
S'2010-06-25'
p1113
sba(iyelp_data_provider
YelpReview
p1114
(dp1115
g14
S'4.0'
p1116
sg16
S'2011-04-23'
p1117
sba(iyelp_data_provider
YelpReview
p1118
(dp1119
g14
S'4.0'
p1120
sg16
S'2012-01-06'
p1121
sba(iyelp_data_provider
YelpReview
p1122
(dp1123
g14
S'5.0'
p1124
sg16
S'2011-05-23'
p1125
sba(iyelp_data_provider
YelpReview
p1126
(dp1127
g14
S'1.0'
p1128
sg16
S'2009-02-04'
p1129
sba(iyelp_data_provider
YelpReview
p1130
(dp1131
g14
S'4.0'
p1132
sg16
S'2009-05-21'
p1133
sba(iyelp_data_provider
YelpReview
p1134
(dp1135
g14
S'4.0'
p1136
sg16
S'2009-06-09'
p1137
sba(iyelp_data_provider
YelpReview
p1138
(dp1139
g14
S'5.0'
p1140
sg16
S'2009-09-28'
p1141
sba(iyelp_data_provider
YelpReview
p1142
(dp1143
g14
S'4.0'
p1144
sg16
S'2010-09-20'
p1145
sba(iyelp_data_provider
YelpReview
p1146
(dp1147
g14
S'5.0'
p1148
sg16
S'2010-10-29'
p1149
sba(iyelp_data_provider
YelpReview
p1150
(dp1151
g14
S'4.0'
p1152
sg16
S'2011-08-29'
p1153
sba(iyelp_data_provider
YelpReview
p1154
(dp1155
g14
S'4.0'
p1156
sg16
S'2011-12-03'
p1157
sba(iyelp_data_provider
YelpReview
p1158
(dp1159
g14
S'5.0'
p1160
sg16
S'2012-01-08'
p1161
sba(iyelp_data_provider
YelpReview
p1162
(dp1163
g14
S'5.0'
p1164
sg16
S'2011-09-22'
p1165
sba(iyelp_data_provider
YelpReview
p1166
(dp1167
g14
S'4.0'
p1168
sg16
S'2011-12-16'
p1169
sba(iyelp_data_provider
YelpReview
p1170
(dp1171
g14
S'5.0'
p1172
sg16
S'2011-12-15'
p1173
sba(iyelp_data_provider
YelpReview
p1174
(dp1175
g14
S'3.0'
p1176
sg16
S'2008-10-01'
p1177
sba(iyelp_data_provider
YelpReview
p1178
(dp1179
g14
S'5.0'
p1180
sg16
S'2008-12-28'
p1181
sba(iyelp_data_provider
YelpReview
p1182
(dp1183
g14
S'4.0'
p1184
sg16
S'2009-06-20'
p1185
sba(iyelp_data_provider
YelpReview
p1186
(dp1187
g14
S'1.0'
p1188
sg16
S'2009-09-10'
p1189
sba(iyelp_data_provider
YelpReview
p1190
(dp1191
g14
S'4.0'
p1192
sg16
S'2010-04-09'
p1193
sba(iyelp_data_provider
YelpReview
p1194
(dp1195
g14
S'2.0'
p1196
sg16
S'2010-06-17'
p1197
sba(iyelp_data_provider
YelpReview
p1198
(dp1199
g14
S'4.0'
p1200
sg16
S'2010-06-22'
p1201
sba(iyelp_data_provider
YelpReview
p1202
(dp1203
g14
S'4.0'
p1204
sg16
S'2010-10-25'
p1205
sba(iyelp_data_provider
YelpReview
p1206
(dp1207
g14
S'1.0'
p1208
sg16
S'2010-10-26'
p1209
sba(iyelp_data_provider
YelpReview
p1210
(dp1211
g14
S'5.0'
p1212
sg16
S'2011-11-05'
p1213
sba(iyelp_data_provider
YelpReview
p1214
(dp1215
g14
S'5.0'
p1216
sg16
S'2011-08-20'
p1217
sba(iyelp_data_provider
YelpReview
p1218
(dp1219
g14
S'5.0'
p1220
sg16
S'2011-11-30'
p1221
sba(iyelp_data_provider
YelpReview
p1222
(dp1223
g14
S'5.0'
p1224
sg16
S'2011-07-31'
p1225
sba(iyelp_data_provider
YelpReview
p1226
(dp1227
g14
S'4.0'
p1228
sg16
S'2011-09-26'
p1229
sba(iyelp_data_provider
YelpReview
p1230
(dp1231
g14
S'3.0'
p1232
sg16
S'2011-07-06'
p1233
sba(iyelp_data_provider
YelpReview
p1234
(dp1235
g14
S'4.0'
p1236
sg16
S'2010-08-26'
p1237
sba(iyelp_data_provider
YelpReview
p1238
(dp1239
g14
S'4.0'
p1240
sg16
S'2010-11-05'
p1241
sba(iyelp_data_provider
YelpReview
p1242
(dp1243
g14
S'4.0'
p1244
sg16
S'2011-10-09'
p1245
sba(iyelp_data_provider
YelpReview
p1246
(dp1247
g14
S'5.0'
p1248
sg16
S'2011-04-02'
p1249
sba(iyelp_data_provider
YelpReview
p1250
(dp1251
g14
S'5.0'
p1252
sg16
S'2011-03-16'
p1253
sba(iyelp_data_provider
YelpReview
p1254
(dp1255
g14
S'5.0'
p1256
sg16
S'2011-08-16'
p1257
sba(iyelp_data_provider
YelpReview
p1258
(dp1259
g14
S'4.0'
p1260
sg16
S'2011-08-09'
p1261
sba(iyelp_data_provider
YelpReview
p1262
(dp1263
g14
S'4.0'
p1264
sg16
S'2012-02-22'
p1265
sba(iyelp_data_provider
YelpReview
p1266
(dp1267
g14
S'4.0'
p1268
sg16
S'2010-10-11'
p1269
sba(iyelp_data_provider
YelpReview
p1270
(dp1271
g14
S'2.0'
p1272
sg16
S'2011-02-25'
p1273
sba(iyelp_data_provider
YelpReview
p1274
(dp1275
g14
S'4.0'
p1276
sg16
S'2010-08-28'
p1277
sba(iyelp_data_provider
YelpReview
p1278
(dp1279
g14
S'3.0'
p1280
sg16
S'2008-12-02'
p1281
sba(iyelp_data_provider
YelpReview
p1282
(dp1283
g14
S'4.0'
p1284
sg16
S'2008-09-05'
p1285
sba(iyelp_data_provider
YelpReview
p1286
(dp1287
g14
S'5.0'
p1288
sg16
S'2011-10-07'
p1289
sba(iyelp_data_provider
YelpReview
p1290
(dp1291
g14
S'3.0'
p1292
sg16
S'2008-11-20'
p1293
sba(iyelp_data_provider
YelpReview
p1294
(dp1295
g14
S'4.0'
p1296
sg16
S'2010-10-02'
p1297
sba(iyelp_data_provider
YelpReview
p1298
(dp1299
g14
S'1.0'
p1300
sg16
S'2012-03-02'
p1301
sba(iyelp_data_provider
YelpReview
p1302
(dp1303
g14
S'4.0'
p1304
sg16
S'2010-03-08'
p1305
sba(iyelp_data_provider
YelpReview
p1306
(dp1307
g14
S'5.0'
p1308
sg16
S'2011-09-24'
p1309
sba(iyelp_data_provider
YelpReview
p1310
(dp1311
g14
S'5.0'
p1312
sg16
S'2009-01-13'
p1313
sba(iyelp_data_provider
YelpReview
p1314
(dp1315
g14
S'5.0'
p1316
sg16
S'2009-01-04'
p1317
sba(iyelp_data_provider
YelpReview
p1318
(dp1319
g14
S'5.0'
p1320
sg16
S'2008-07-14'
p1321
sba(iyelp_data_provider
YelpReview
p1322
(dp1323
g14
S'5.0'
p1324
sg16
S'2011-07-02'
p1325
sba(iyelp_data_provider
YelpReview
p1326
(dp1327
g14
S'4.0'
p1328
sg16
S'2008-06-23'
p1329
sba(iyelp_data_provider
YelpReview
p1330
(dp1331
g14
S'5.0'
p1332
sg16
S'2011-04-28'
p1333
sba(iyelp_data_provider
YelpReview
p1334
(dp1335
g14
S'4.0'
p1336
sg16
S'2008-09-01'
p1337
sba(iyelp_data_provider
YelpReview
p1338
(dp1339
g14
S'5.0'
p1340
sg16
S'2010-04-06'
p1341
sba(iyelp_data_provider
YelpReview
p1342
(dp1343
g14
S'4.0'
p1344
sg16
S'2011-09-04'
p1345
sba(iyelp_data_provider
YelpReview
p1346
(dp1347
g14
S'5.0'
p1348
sg16
S'2011-10-03'
p1349
sba(iyelp_data_provider
YelpReview
p1350
(dp1351
g14
S'3.0'
p1352
sg16
S'2008-07-21'
p1353
sba(iyelp_data_provider
YelpReview
p1354
(dp1355
g14
S'5.0'
p1356
sg16
S'2009-07-10'
p1357
sba(iyelp_data_provider
YelpReview
p1358
(dp1359
g14
S'5.0'
p1360
sg16
S'2009-12-14'
p1361
sba(iyelp_data_provider
YelpReview
p1362
(dp1363
g14
S'5.0'
p1364
sg16
S'2010-01-28'
p1365
sba(iyelp_data_provider
YelpReview
p1366
(dp1367
g14
S'5.0'
p1368
sg16
S'2010-04-08'
p1369
sba(iyelp_data_provider
YelpReview
p1370
(dp1371
g14
S'5.0'
p1372
sg16
S'2011-01-30'
p1373
sba(iyelp_data_provider
YelpReview
p1374
(dp1375
g14
S'5.0'
p1376
sg16
S'2011-08-10'
p1377
sba(iyelp_data_provider
YelpReview
p1378
(dp1379
g14
S'1.0'
p1380
sg16
S'2010-03-28'
p1381
sba(iyelp_data_provider
YelpReview
p1382
(dp1383
g14
S'4.0'
p1384
sg16
S'2009-08-20'
p1385
sba(iyelp_data_provider
YelpReview
p1386
(dp1387
g14
S'4.0'
p1388
sg16
S'2008-02-23'
p1389
sba(iyelp_data_provider
YelpReview
p1390
(dp1391
g14
S'5.0'
p1392
sg16
S'2009-08-03'
p1393
sba(iyelp_data_provider
YelpReview
p1394
(dp1395
g14
S'4.0'
p1396
sg16
S'2012-03-07'
p1397
sba(iyelp_data_provider
YelpReview
p1398
(dp1399
g14
S'2.0'
p1400
sg16
S'2010-02-21'
p1401
sba(iyelp_data_provider
YelpReview
p1402
(dp1403
g14
S'4.0'
p1404
sg16
S'2009-08-24'
p1405
sba(iyelp_data_provider
YelpReview
p1406
(dp1407
g14
S'2.0'
p1408
sg16
S'2008-08-05'
p1409
sba(iyelp_data_provider
YelpReview
p1410
(dp1411
g14
S'5.0'
p1412
sg16
S'2011-05-21'
p1413
sba(iyelp_data_provider
YelpReview
p1414
(dp1415
g14
S'4.0'
p1416
sg16
S'2009-02-10'
p1417
sba(iyelp_data_provider
YelpReview
p1418
(dp1419
g14
S'5.0'
p1420
sg16
S'2009-02-22'
p1421
sba(iyelp_data_provider
YelpReview
p1422
(dp1423
g14
S'4.0'
p1424
sg16
S'2011-02-27'
p1425
sba(iyelp_data_provider
YelpReview
p1426
(dp1427
g14
S'3.0'
p1428
sg16
S'2009-05-24'
p1429
sba(iyelp_data_provider
YelpReview
p1430
(dp1431
g14
S'4.0'
p1432
sg16
S'2010-08-23'
p1433
sba(iyelp_data_provider
YelpReview
p1434
(dp1435
g14
S'5.0'
p1436
sg16
S'2009-01-08'
p1437
sba(iyelp_data_provider
YelpReview
p1438
(dp1439
g14
S'4.0'
p1440
sg16
S'2012-03-22'
p1441
sba(iyelp_data_provider
YelpReview
p1442
(dp1443
g14
S'4.0'
p1444
sg16
S'2008-08-19'
p1445
sba(iyelp_data_provider
YelpReview
p1446
(dp1447
g14
S'4.0'
p1448
sg16
S'2009-07-29'
p1449
sba(iyelp_data_provider
YelpReview
p1450
(dp1451
g14
S'4.0'
p1452
sg16
S'2010-01-23'
p1453
sba(iyelp_data_provider
YelpReview
p1454
(dp1455
g14
S'4.0'
p1456
sg16
S'2010-05-12'
p1457
sba(iyelp_data_provider
YelpReview
p1458
(dp1459
g14
S'3.0'
p1460
sg16
S'2011-01-24'
p1461
sba(iyelp_data_provider
YelpReview
p1462
(dp1463
g14
S'4.0'
p1464
sg16
S'2009-03-12'
p1465
sba(iyelp_data_provider
YelpReview
p1466
(dp1467
g14
S'2.0'
p1468
sg16
S'2011-01-14'
p1469
sba(iyelp_data_provider
YelpReview
p1470
(dp1471
g14
S'4.0'
p1472
sg16
S'2010-02-09'
p1473
sba(iyelp_data_provider
YelpReview
p1474
(dp1475
g14
S'5.0'
p1476
sg16
S'2009-05-25'
p1477
sba(iyelp_data_provider
YelpReview
p1478
(dp1479
g14
S'5.0'
p1480
sg16
S'2009-09-19'
p1481
sba(iyelp_data_provider
YelpReview
p1482
(dp1483
g14
S'4.0'
p1484
sg16
S'2009-12-01'
p1485
sba(iyelp_data_provider
YelpReview
p1486
(dp1487
g14
S'4.0'
p1488
sg16
S'2011-04-23'
p1489
sba(iyelp_data_provider
YelpReview
p1490
(dp1491
g14
S'5.0'
p1492
sg16
S'2011-04-23'
p1493
sba(iyelp_data_provider
YelpReview
p1494
(dp1495
g14
S'4.0'
p1496
sg16
S'2011-06-22'
p1497
sba(iyelp_data_provider
YelpReview
p1498
(dp1499
g14
S'4.0'
p1500
sg16
S'2010-12-29'
p1501
sba(iyelp_data_provider
YelpReview
p1502
(dp1503
g14
S'4.0'
p1504
sg16
S'2011-05-10'
p1505
sba(iyelp_data_provider
YelpReview
p1506
(dp1507
g14
S'4.0'
p1508
sg16
S'2008-12-12'
p1509
sba(iyelp_data_provider
YelpReview
p1510
(dp1511
g14
S'5.0'
p1512
sg16
S'2009-01-09'
p1513
sba(iyelp_data_provider
YelpReview
p1514
(dp1515
g14
S'5.0'
p1516
sg16
S'2009-09-20'
p1517
sba(iyelp_data_provider
YelpReview
p1518
(dp1519
g14
S'3.0'
p1520
sg16
S'2010-11-02'
p1521
sba(iyelp_data_provider
YelpReview
p1522
(dp1523
g14
S'3.0'
p1524
sg16
S'2010-11-30'
p1525
sba(iyelp_data_provider
YelpReview
p1526
(dp1527
g14
S'4.0'
p1528
sg16
S'2011-02-13'
p1529
sba(iyelp_data_provider
YelpReview
p1530
(dp1531
g14
S'4.0'
p1532
sg16
S'2010-08-09'
p1533
sba(iyelp_data_provider
YelpReview
p1534
(dp1535
g14
S'4.0'
p1536
sg16
S'2012-07-18'
p1537
sba(iyelp_data_provider
YelpReview
p1538
(dp1539
g14
S'5.0'
p1540
sg16
S'2008-10-03'
p1541
sba(iyelp_data_provider
YelpReview
p1542
(dp1543
g14
S'3.0'
p1544
sg16
S'2009-08-01'
p1545
sba(iyelp_data_provider
YelpReview
p1546
(dp1547
g14
S'4.0'
p1548
sg16
S'2010-04-04'
p1549
sba(iyelp_data_provider
YelpReview
p1550
(dp1551
g14
S'3.0'
p1552
sg16
S'2010-05-19'
p1553
sba(iyelp_data_provider
YelpReview
p1554
(dp1555
g14
S'4.0'
p1556
sg16
S'2011-04-18'
p1557
sba(iyelp_data_provider
YelpReview
p1558
(dp1559
g14
S'5.0'
p1560
sg16
S'2009-09-30'
p1561
sba(iyelp_data_provider
YelpReview
p1562
(dp1563
g14
S'1.0'
p1564
sg16
S'2010-08-15'
p1565
sba(iyelp_data_provider
YelpReview
p1566
(dp1567
g14
S'5.0'
p1568
sg16
S'2010-08-26'
p1569
sba(iyelp_data_provider
YelpReview
p1570
(dp1571
g14
S'5.0'
p1572
sg16
S'2010-09-19'
p1573
sba(iyelp_data_provider
YelpReview
p1574
(dp1575
g14
S'5.0'
p1576
sg16
S'2011-10-16'
p1577
sba(iyelp_data_provider
YelpReview
p1578
(dp1579
g14
S'5.0'
p1580
sg16
S'2011-02-28'
p1581
sba(iyelp_data_provider
YelpReview
p1582
(dp1583
g14
S'4.0'
p1584
sg16
S'2011-01-25'
p1585
sba(iyelp_data_provider
YelpReview
p1586
(dp1587
g14
S'5.0'
p1588
sg16
S'2008-11-04'
p1589
sba(iyelp_data_provider
YelpReview
p1590
(dp1591
g14
S'4.0'
p1592
sg16
S'2009-01-03'
p1593
sba(iyelp_data_provider
YelpReview
p1594
(dp1595
g14
S'5.0'
p1596
sg16
S'2009-03-09'
p1597
sba(iyelp_data_provider
YelpReview
p1598
(dp1599
g14
S'5.0'
p1600
sg16
S'2010-02-25'
p1601
sba(iyelp_data_provider
YelpReview
p1602
(dp1603
g14
S'4.0'
p1604
sg16
S'2010-09-07'
p1605
sba(iyelp_data_provider
YelpReview
p1606
(dp1607
g14
S'3.0'
p1608
sg16
S'2010-09-22'
p1609
sba(iyelp_data_provider
YelpReview
p1610
(dp1611
g14
S'5.0'
p1612
sg16
S'2011-11-05'
p1613
sba(iyelp_data_provider
YelpReview
p1614
(dp1615
g14
S'4.0'
p1616
sg16
S'2011-03-22'
p1617
sba(iyelp_data_provider
YelpReview
p1618
(dp1619
g14
S'4.0'
p1620
sg16
S'2008-11-25'
p1621
sba(iyelp_data_provider
YelpReview
p1622
(dp1623
g14
S'4.0'
p1624
sg16
S'2008-12-19'
p1625
sba(iyelp_data_provider
YelpReview
p1626
(dp1627
g14
S'5.0'
p1628
sg16
S'2009-11-02'
p1629
sba(iyelp_data_provider
YelpReview
p1630
(dp1631
g14
S'3.0'
p1632
sg16
S'2010-03-13'
p1633
sba(iyelp_data_provider
YelpReview
p1634
(dp1635
g14
S'4.0'
p1636
sg16
S'2010-08-30'
p1637
sba(iyelp_data_provider
YelpReview
p1638
(dp1639
g14
S'4.0'
p1640
sg16
S'2011-02-05'
p1641
sba(iyelp_data_provider
YelpReview
p1642
(dp1643
g14
S'5.0'
p1644
sg16
S'2011-08-06'
p1645
sba(iyelp_data_provider
YelpReview
p1646
(dp1647
g14
S'5.0'
p1648
sg16
S'2010-12-19'
p1649
sba(iyelp_data_provider
YelpReview
p1650
(dp1651
g14
S'5.0'
p1652
sg16
S'2009-05-25'
p1653
sba(iyelp_data_provider
YelpReview
p1654
(dp1655
g14
S'5.0'
p1656
sg16
S'2010-02-06'
p1657
sba(iyelp_data_provider
YelpReview
p1658
(dp1659
g14
S'5.0'
p1660
sg16
S'2010-04-07'
p1661
sba(iyelp_data_provider
YelpReview
p1662
(dp1663
g14
S'5.0'
p1664
sg16
S'2010-11-16'
p1665
sba(iyelp_data_provider
YelpReview
p1666
(dp1667
g14
S'4.0'
p1668
sg16
S'2011-01-07'
p1669
sba(iyelp_data_provider
YelpReview
p1670
(dp1671
g14
S'3.0'
p1672
sg16
S'2009-02-14'
p1673
sba(iyelp_data_provider
YelpReview
p1674
(dp1675
g14
S'4.0'
p1676
sg16
S'2010-03-07'
p1677
sba(iyelp_data_provider
YelpReview
p1678
(dp1679
g14
S'4.0'
p1680
sg16
S'2010-07-28'
p1681
sba(iyelp_data_provider
YelpReview
p1682
(dp1683
g14
S'3.0'
p1684
sg16
S'2011-11-21'
p1685
sba(iyelp_data_provider
YelpReview
p1686
(dp1687
g14
S'4.0'
p1688
sg16
S'2009-02-23'
p1689
sba(iyelp_data_provider
YelpReview
p1690
(dp1691
g14
S'4.0'
p1692
sg16
S'2009-05-12'
p1693
sba(iyelp_data_provider
YelpReview
p1694
(dp1695
g14
S'4.0'
p1696
sg16
S'2010-01-05'
p1697
sba(iyelp_data_provider
YelpReview
p1698
(dp1699
g14
S'4.0'
p1700
sg16
S'2010-03-05'
p1701
sba(iyelp_data_provider
YelpReview
p1702
(dp1703
g14
S'5.0'
p1704
sg16
S'2010-03-24'
p1705
sba(iyelp_data_provider
YelpReview
p1706
(dp1707
g14
S'4.0'
p1708
sg16
S'2010-08-28'
p1709
sba(iyelp_data_provider
YelpReview
p1710
(dp1711
g14
S'3.0'
p1712
sg16
S'2010-11-09'
p1713
sba(iyelp_data_provider
YelpReview
p1714
(dp1715
g14
S'4.0'
p1716
sg16
S'2011-04-11'
p1717
sba(iyelp_data_provider
YelpReview
p1718
(dp1719
g14
S'5.0'
p1720
sg16
S'2012-05-25'
p1721
sba(iyelp_data_provider
YelpReview
p1722
(dp1723
g14
S'5.0'
p1724
sg16
S'2009-05-20'
p1725
sba(iyelp_data_provider
YelpReview
p1726
(dp1727
g14
S'5.0'
p1728
sg16
S'2008-09-08'
p1729
sba(iyelp_data_provider
YelpReview
p1730
(dp1731
g14
S'5.0'
p1732
sg16
S'2009-09-18'
p1733
sba(iyelp_data_provider
YelpReview
p1734
(dp1735
g14
S'5.0'
p1736
sg16
S'2011-04-10'
p1737
sba(iyelp_data_provider
YelpReview
p1738
(dp1739
g14
S'5.0'
p1740
sg16
S'2011-08-25'
p1741
sba(iyelp_data_provider
YelpReview
p1742
(dp1743
g14
S'3.0'
p1744
sg16
S'2011-08-18'
p1745
sba(iyelp_data_provider
YelpReview
p1746
(dp1747
g14
S'4.0'
p1748
sg16
S'2009-03-02'
p1749
sba(iyelp_data_provider
YelpReview
p1750
(dp1751
g14
S'5.0'
p1752
sg16
S'2008-12-04'
p1753
sba(iyelp_data_provider
YelpReview
p1754
(dp1755
g14
S'2.0'
p1756
sg16
S'2008-11-30'
p1757
sba(iyelp_data_provider
YelpReview
p1758
(dp1759
g14
S'4.0'
p1760
sg16
S'2008-09-08'
p1761
sba(iyelp_data_provider
YelpReview
p1762
(dp1763
g14
S'5.0'
p1764
sg16
S'2010-07-04'
p1765
sba(iyelp_data_provider
YelpReview
p1766
(dp1767
g14
S'5.0'
p1768
sg16
S'2011-05-14'
p1769
sba(iyelp_data_provider
YelpReview
p1770
(dp1771
g14
S'4.0'
p1772
sg16
S'2011-03-28'
p1773
sba(iyelp_data_provider
YelpReview
p1774
(dp1775
g14
S'4.0'
p1776
sg16
S'2011-05-28'
p1777
sba(iyelp_data_provider
YelpReview
p1778
(dp1779
g14
S'4.0'
p1780
sg16
S'2011-05-20'
p1781
sba(iyelp_data_provider
YelpReview
p1782
(dp1783
g14
S'4.0'
p1784
sg16
S'2012-02-09'
p1785
sba(iyelp_data_provider
YelpReview
p1786
(dp1787
g14
S'3.0'
p1788
sg16
S'2011-01-06'
p1789
sba(iyelp_data_provider
YelpReview
p1790
(dp1791
g14
S'1.0'
p1792
sg16
S'2011-01-30'
p1793
sba(iyelp_data_provider
YelpReview
p1794
(dp1795
g14
S'5.0'
p1796
sg16
S'2011-03-21'
p1797
sba(iyelp_data_provider
YelpReview
p1798
(dp1799
g14
S'5.0'
p1800
sg16
S'2009-09-20'
p1801
sba(iyelp_data_provider
YelpReview
p1802
(dp1803
g14
S'5.0'
p1804
sg16
S'2009-07-07'
p1805
sba(iyelp_data_provider
YelpReview
p1806
(dp1807
g14
S'5.0'
p1808
sg16
S'2010-05-06'
p1809
sba(iyelp_data_provider
YelpReview
p1810
(dp1811
g14
S'5.0'
p1812
sg16
S'2010-05-24'
p1813
sba(iyelp_data_provider
YelpReview
p1814
(dp1815
g14
S'5.0'
p1816
sg16
S'2010-09-21'
p1817
sba(iyelp_data_provider
YelpReview
p1818
(dp1819
g14
S'4.0'
p1820
sg16
S'2008-12-21'
p1821
sba(iyelp_data_provider
YelpReview
p1822
(dp1823
g14
S'5.0'
p1824
sg16
S'2009-06-09'
p1825
sba(iyelp_data_provider
YelpReview
p1826
(dp1827
g14
S'5.0'
p1828
sg16
S'2010-04-07'
p1829
sba(iyelp_data_provider
YelpReview
p1830
(dp1831
g14
S'4.0'
p1832
sg16
S'2009-03-10'
p1833
sba(iyelp_data_provider
YelpReview
p1834
(dp1835
g14
S'5.0'
p1836
sg16
S'2010-04-25'
p1837
sba(iyelp_data_provider
YelpReview
p1838
(dp1839
g14
S'5.0'
p1840
sg16
S'2011-09-16'
p1841
sba(iyelp_data_provider
YelpReview
p1842
(dp1843
g14
S'3.0'
p1844
sg16
S'2009-02-22'
p1845
sba(iyelp_data_provider
YelpReview
p1846
(dp1847
g14
S'4.0'
p1848
sg16
S'2008-02-22'
p1849
sbasS'has_extra_content'
p1850
I01
sS'latitude'
p1851
F40.7648963
sS'id'
p1852
VJL_p-OHtSEYVfoeLQQgqDA
p1853
sba(iyelp_data_provider
YelpBusiness
p1854
(dp1855
g3
I48
sg4
VOn The Rocks
p1856
sg6
Vhttp://www.yelp.com/biz/on-the-rocks-manhattan
p1857
sg8
F4.0
sg9
F-73.9922849
sg10
(lp1858
(iyelp_data_provider
YelpReview
p1859
(dp1860
g14
S'4.0'
p1861
sg16
S'2012-11-27'
p1862
sba(iyelp_data_provider
YelpReview
p1863
(dp1864
g14
S'5.0'
p1865
sg16
S'2012-09-17'
p1866
sba(iyelp_data_provider
YelpReview
p1867
(dp1868
g14
S'2.0'
p1869
sg16
S'2012-07-30'
p1870
sba(iyelp_data_provider
YelpReview
p1871
(dp1872
g14
S'4.0'
p1873
sg16
S'2012-10-27'
p1874
sba(iyelp_data_provider
YelpReview
p1875
(dp1876
g14
S'4.0'
p1877
sg16
S'2012-11-06'
p1878
sba(iyelp_data_provider
YelpReview
p1879
(dp1880
g14
S'5.0'
p1881
sg16
S'2012-10-22'
p1882
sba(iyelp_data_provider
YelpReview
p1883
(dp1884
g14
S'4.0'
p1885
sg16
S'2012-06-11'
p1886
sba(iyelp_data_provider
YelpReview
p1887
(dp1888
g14
S'5.0'
p1889
sg16
S'2012-10-20'
p1890
sba(iyelp_data_provider
YelpReview
p1891
(dp1892
g14
S'5.0'
p1893
sg16
S'2012-06-04'
p1894
sba(iyelp_data_provider
YelpReview
p1895
(dp1896
g14
S'4.0'
p1897
sg16
S'2012-06-04'
p1898
sba(iyelp_data_provider
YelpReview
p1899
(dp1900
g14
S'2.0'
p1901
sg16
S'2012-06-26'
p1902
sba(iyelp_data_provider
YelpReview
p1903
(dp1904
g14
S'4.0'
p1905
sg16
S'2012-04-17'
p1906
sba(iyelp_data_provider
YelpReview
p1907
(dp1908
g14
S'5.0'
p1909
sg16
S'2012-04-14'
p1910
sba(iyelp_data_provider
YelpReview
p1911
(dp1912
g14
S'4.0'
p1913
sg16
S'2012-05-04'
p1914
sba(iyelp_data_provider
YelpReview
p1915
(dp1916
g14
S'4.0'
p1917
sg16
S'2012-03-27'
p1918
sba(iyelp_data_provider
YelpReview
p1919
(dp1920
g14
S'5.0'
p1921
sg16
S'2012-05-04'
p1922
sba(iyelp_data_provider
YelpReview
p1923
(dp1924
g14
S'3.0'
p1925
sg16
S'2012-09-07'
p1926
sba(iyelp_data_provider
YelpReview
p1927
(dp1928
g14
S'3.0'
p1929
sg16
S'2012-02-09'
p1930
sba(iyelp_data_provider
YelpReview
p1931
(dp1932
g14
S'4.0'
p1933
sg16
S'2012-08-13'
p1934
sba(iyelp_data_provider
YelpReview
p1935
(dp1936
g14
S'3.0'
p1937
sg16
S'2012-01-24'
p1938
sba(iyelp_data_provider
YelpReview
p1939
(dp1940
g14
S'4.0'
p1941
sg16
S'2012-07-25'
p1942
sba(iyelp_data_provider
YelpReview
p1943
(dp1944
g14
S'4.0'
p1945
sg16
S'2012-02-04'
p1946
sba(iyelp_data_provider
YelpReview
p1947
(dp1948
g14
S'4.0'
p1949
sg16
S'2012-02-15'
p1950
sba(iyelp_data_provider
YelpReview
p1951
(dp1952
g14
S'5.0'
p1953
sg16
S'2011-09-06'
p1954
sba(iyelp_data_provider
YelpReview
p1955
(dp1956
g14
S'5.0'
p1957
sg16
S'2011-08-12'
p1958
sba(iyelp_data_provider
YelpReview
p1959
(dp1960
g14
S'4.0'
p1961
sg16
S'2012-06-27'
p1962
sba(iyelp_data_provider
YelpReview
p1963
(dp1964
g14
S'4.0'
p1965
sg16
S'2011-08-14'
p1966
sba(iyelp_data_provider
YelpReview
p1967
(dp1968
g14
S'5.0'
p1969
sg16
S'2011-10-04'
p1970
sba(iyelp_data_provider
YelpReview
p1971
(dp1972
g14
S'5.0'
p1973
sg16
S'2011-04-16'
p1974
sba(iyelp_data_provider
YelpReview
p1975
(dp1976
g14
S'5.0'
p1977
sg16
S'2011-11-29'
p1978
sba(iyelp_data_provider
YelpReview
p1979
(dp1980
g14
S'3.0'
p1981
sg16
S'2012-02-19'
p1982
sba(iyelp_data_provider
YelpReview
p1983
(dp1984
g14
S'4.0'
p1985
sg16
S'2011-04-16'
p1986
sba(iyelp_data_provider
YelpReview
p1987
(dp1988
g14
S'3.0'
p1989
sg16
S'2012-01-12'
p1990
sba(iyelp_data_provider
YelpReview
p1991
(dp1992
g14
S'5.0'
p1993
sg16
S'2012-03-31'
p1994
sba(iyelp_data_provider
YelpReview
p1995
(dp1996
g14
S'5.0'
p1997
sg16
S'2011-04-18'
p1998
sba(iyelp_data_provider
YelpReview
p1999
(dp2000
g14
S'4.0'
p2001
sg16
S'2011-01-19'
p2002
sba(iyelp_data_provider
YelpReview
p2003
(dp2004
g14
S'5.0'
p2005
sg16
S'2010-11-25'
p2006
sba(iyelp_data_provider
YelpReview
p2007
(dp2008
g14
S'4.0'
p2009
sg16
S'2012-01-11'
p2010
sba(iyelp_data_provider
YelpReview
p2011
(dp2012
g14
S'5.0'
p2013
sg16
S'2011-11-14'
p2014
sba(iyelp_data_provider
YelpReview
p2015
(dp2016
g14
S'5.0'
p2017
sg16
S'2012-09-06'
p2018
sba(iyelp_data_provider
YelpReview
p2019
(dp2020
g14
S'4.0'
p2021
sg16
S'2011-08-10'
p2022
sba(iyelp_data_provider
YelpReview
p2023
(dp2024
g14
S'4.0'
p2025
sg16
S'2012-05-24'
p2026
sba(iyelp_data_provider
YelpReview
p2027
(dp2028
g14
S'4.0'
p2029
sg16
S'2011-11-23'
p2030
sba(iyelp_data_provider
YelpReview
p2031
(dp2032
g14
S'4.0'
p2033
sg16
S'2011-09-13'
p2034
sba(iyelp_data_provider
YelpReview
p2035
(dp2036
g14
S'5.0'
p2037
sg16
S'2010-11-20'
p2038
sba(iyelp_data_provider
YelpReview
p2039
(dp2040
g14
S'4.0'
p2041
sg16
S'2011-05-20'
p2042
sba(iyelp_data_provider
YelpReview
p2043
(dp2044
g14
S'5.0'
p2045
sg16
S'2012-02-15'
p2046
sba(iyelp_data_provider
YelpReview
p2047
(dp2048
g14
S'4.0'
p2049
sg16
S'2010-12-18'
p2050
sbasg1850
I01
sg1851
F40.7638148
sS'price_range'
p2051
S'$$'
p2052
sg1852
V9JGdwVMF7MW452eGmCpnDw
p2053
sba(iyelp_data_provider
YelpBusiness
p2054
(dp2055
g3
I484
sg4
VRudy's Bar & Grill
p2056
sg6
Vhttp://www.yelp.com/biz/rudys-bar-and-grill-new-york
p2057
sg8
F4.0
sg9
F-73.991825
sg10
(lp2058
(iyelp_data_provider
YelpReview
p2059
(dp2060
g14
S'4.0'
p2061
sg16
S'2012-12-02'
p2062
sba(iyelp_data_provider
YelpReview
p2063
(dp2064
g14
S'5.0'
p2065
sg16
S'2012-11-25'
p2066
sba(iyelp_data_provider
YelpReview
p2067
(dp2068
g14
S'4.0'
p2069
sg16
S'2012-11-12'
p2070
sba(iyelp_data_provider
YelpReview
p2071
(dp2072
g14
S'4.0'
p2073
sg16
S'2012-12-05'
p2074
sba(iyelp_data_provider
YelpReview
p2075
(dp2076
g14
S'2.0'
p2077
sg16
S'2012-11-29'
p2078
sba(iyelp_data_provider
YelpReview
p2079
(dp2080
g14
S'4.0'
p2081
sg16
S'2012-11-07'
p2082
sba(iyelp_data_provider
YelpReview
p2083
(dp2084
g14
S'4.0'
p2085
sg16
S'2012-10-31'
p2086
sba(iyelp_data_provider
YelpReview
p2087
(dp2088
g14
S'4.0'
p2089
sg16
S'2012-10-14'
p2090
sba(iyelp_data_provider
YelpReview
p2091
(dp2092
g14
S'5.0'
p2093
sg16
S'2012-11-03'
p2094
sba(iyelp_data_provider
YelpReview
p2095
(dp2096
g14
S'4.0'
p2097
sg16
S'2012-10-21'
p2098
sba(iyelp_data_provider
YelpReview
p2099
(dp2100
g14
S'4.0'
p2101
sg16
S'2012-11-19'
p2102
sba(iyelp_data_provider
YelpReview
p2103
(dp2104
g14
S'4.0'
p2105
sg16
S'2012-10-23'
p2106
sba(iyelp_data_provider
YelpReview
p2107
(dp2108
g14
S'4.0'
p2109
sg16
S'2012-10-14'
p2110
sba(iyelp_data_provider
YelpReview
p2111
(dp2112
g14
S'3.0'
p2113
sg16
S'2012-12-01'
p2114
sba(iyelp_data_provider
YelpReview
p2115
(dp2116
g14
S'5.0'
p2117
sg16
S'2012-10-21'
p2118
sba(iyelp_data_provider
YelpReview
p2119
(dp2120
g14
S'3.0'
p2121
sg16
S'2012-11-10'
p2122
sba(iyelp_data_provider
YelpReview
p2123
(dp2124
g14
S'5.0'
p2125
sg16
S'2012-09-11'
p2126
sba(iyelp_data_provider
YelpReview
p2127
(dp2128
g14
S'5.0'
p2129
sg16
S'2012-11-11'
p2130
sba(iyelp_data_provider
YelpReview
p2131
(dp2132
g14
S'3.0'
p2133
sg16
S'2012-09-16'
p2134
sba(iyelp_data_provider
YelpReview
p2135
(dp2136
g14
S'5.0'
p2137
sg16
S'2012-09-16'
p2138
sba(iyelp_data_provider
YelpReview
p2139
(dp2140
g14
S'4.0'
p2141
sg16
S'2012-09-22'
p2142
sba(iyelp_data_provider
YelpReview
p2143
(dp2144
g14
S'2.0'
p2145
sg16
S'2012-08-07'
p2146
sba(iyelp_data_provider
YelpReview
p2147
(dp2148
g14
S'4.0'
p2149
sg16
S'2012-07-24'
p2150
sba(iyelp_data_provider
YelpReview
p2151
(dp2152
g14
S'5.0'
p2153
sg16
S'2012-09-04'
p2154
sba(iyelp_data_provider
YelpReview
p2155
(dp2156
g14
S'3.0'
p2157
sg16
S'2012-09-16'
p2158
sba(iyelp_data_provider
YelpReview
p2159
(dp2160
g14
S'4.0'
p2161
sg16
S'2012-08-06'
p2162
sba(iyelp_data_provider
YelpReview
p2163
(dp2164
g14
S'4.0'
p2165
sg16
S'2012-08-28'
p2166
sba(iyelp_data_provider
YelpReview
p2167
(dp2168
g14
S'3.0'
p2169
sg16
S'2012-08-02'
p2170
sba(iyelp_data_provider
YelpReview
p2171
(dp2172
g14
S'5.0'
p2173
sg16
S'2012-08-31'
p2174
sba(iyelp_data_provider
YelpReview
p2175
(dp2176
g14
S'5.0'
p2177
sg16
S'2012-08-07'
p2178
sba(iyelp_data_provider
YelpReview
p2179
(dp2180
g14
S'4.0'
p2181
sg16
S'2012-06-30'
p2182
sba(iyelp_data_provider
YelpReview
p2183
(dp2184
g14
S'5.0'
p2185
sg16
S'2012-08-30'
p2186
sba(iyelp_data_provider
YelpReview
p2187
(dp2188
g14
S'4.0'
p2189
sg16
S'2012-08-13'
p2190
sba(iyelp_data_provider
YelpReview
p2191
(dp2192
g14
S'5.0'
p2193
sg16
S'2012-06-27'
p2194
sba(iyelp_data_provider
YelpReview
p2195
(dp2196
g14
S'5.0'
p2197
sg16
S'2012-08-10'
p2198
sba(iyelp_data_provider
YelpReview
p2199
(dp2200
g14
S'4.0'
p2201
sg16
S'2012-09-24'
p2202
sba(iyelp_data_provider
YelpReview
p2203
(dp2204
g14
S'4.0'
p2205
sg16
S'2012-06-14'
p2206
sba(iyelp_data_provider
YelpReview
p2207
(dp2208
g14
S'4.0'
p2209
sg16
S'2012-06-24'
p2210
sba(iyelp_data_provider
YelpReview
p2211
(dp2212
g14
S'3.0'
p2213
sg16
S'2012-07-07'
p2214
sba(iyelp_data_provider
YelpReview
p2215
(dp2216
g14
S'4.0'
p2217
sg16
S'2012-05-19'
p2218
sba(iyelp_data_provider
YelpReview
p2219
(dp2220
g14
S'4.0'
p2221
sg16
S'2012-08-21'
p2222
sba(iyelp_data_provider
YelpReview
p2223
(dp2224
g14
S'4.0'
p2225
sg16
S'2012-07-09'
p2226
sba(iyelp_data_provider
YelpReview
p2227
(dp2228
g14
S'3.0'
p2229
sg16
S'2012-07-08'
p2230
sba(iyelp_data_provider
YelpReview
p2231
(dp2232
g14
S'4.0'
p2233
sg16
S'2012-05-10'
p2234
sba(iyelp_data_provider
YelpReview
p2235
(dp2236
g14
S'3.0'
p2237
sg16
S'2012-10-13'
p2238
sba(iyelp_data_provider
YelpReview
p2239
(dp2240
g14
S'4.0'
p2241
sg16
S'2012-05-21'
p2242
sba(iyelp_data_provider
YelpReview
p2243
(dp2244
g14
S'3.0'
p2245
sg16
S'2012-07-24'
p2246
sba(iyelp_data_provider
YelpReview
p2247
(dp2248
g14
S'2.0'
p2249
sg16
S'2012-10-07'
p2250
sba(iyelp_data_provider
YelpReview
p2251
(dp2252
g14
S'4.0'
p2253
sg16
S'2012-07-31'
p2254
sba(iyelp_data_provider
YelpReview
p2255
(dp2256
g14
S'4.0'
p2257
sg16
S'2012-03-03'
p2258
sba(iyelp_data_provider
YelpReview
p2259
(dp2260
g14
S'4.0'
p2261
sg16
S'2012-06-06'
p2262
sba(iyelp_data_provider
YelpReview
p2263
(dp2264
g14
S'4.0'
p2265
sg16
S'2012-06-06'
p2266
sba(iyelp_data_provider
YelpReview
p2267
(dp2268
g14
S'4.0'
p2269
sg16
S'2012-06-05'
p2270
sba(iyelp_data_provider
YelpReview
p2271
(dp2272
g14
S'4.0'
p2273
sg16
S'2012-07-20'
p2274
sba(iyelp_data_provider
YelpReview
p2275
(dp2276
g14
S'5.0'
p2277
sg16
S'2012-05-29'
p2278
sba(iyelp_data_provider
YelpReview
p2279
(dp2280
g14
S'3.0'
p2281
sg16
S'2012-09-20'
p2282
sba(iyelp_data_provider
YelpReview
p2283
(dp2284
g14
S'5.0'
p2285
sg16
S'2012-04-11'
p2286
sba(iyelp_data_provider
YelpReview
p2287
(dp2288
g14
S'2.0'
p2289
sg16
S'2012-01-30'
p2290
sba(iyelp_data_provider
YelpReview
p2291
(dp2292
g14
S'4.0'
p2293
sg16
S'2012-04-02'
p2294
sba(iyelp_data_provider
YelpReview
p2295
(dp2296
g14
S'5.0'
p2297
sg16
S'2012-08-06'
p2298
sba(iyelp_data_provider
YelpReview
p2299
(dp2300
g14
S'4.0'
p2301
sg16
S'2012-08-24'
p2302
sba(iyelp_data_provider
YelpReview
p2303
(dp2304
g14
S'4.0'
p2305
sg16
S'2012-09-06'
p2306
sba(iyelp_data_provider
YelpReview
p2307
(dp2308
g14
S'4.0'
p2309
sg16
S'2012-04-06'
p2310
sba(iyelp_data_provider
YelpReview
p2311
(dp2312
g14
S'4.0'
p2313
sg16
S'2012-01-17'
p2314
sba(iyelp_data_provider
YelpReview
p2315
(dp2316
g14
S'4.0'
p2317
sg16
S'2012-08-27'
p2318
sba(iyelp_data_provider
YelpReview
p2319
(dp2320
g14
S'5.0'
p2321
sg16
S'2012-07-30'
p2322
sba(iyelp_data_provider
YelpReview
p2323
(dp2324
g14
S'4.0'
p2325
sg16
S'2012-07-26'
p2326
sba(iyelp_data_provider
YelpReview
p2327
(dp2328
g14
S'4.0'
p2329
sg16
S'2012-09-09'
p2330
sba(iyelp_data_provider
YelpReview
p2331
(dp2332
g14
S'5.0'
p2333
sg16
S'2012-03-28'
p2334
sba(iyelp_data_provider
YelpReview
p2335
(dp2336
g14
S'5.0'
p2337
sg16
S'2012-02-12'
p2338
sba(iyelp_data_provider
YelpReview
p2339
(dp2340
g14
S'5.0'
p2341
sg16
S'2012-06-04'
p2342
sba(iyelp_data_provider
YelpReview
p2343
(dp2344
g14
S'5.0'
p2345
sg16
S'2012-03-22'
p2346
sba(iyelp_data_provider
YelpReview
p2347
(dp2348
g14
S'3.0'
p2349
sg16
S'2012-03-07'
p2350
sba(iyelp_data_provider
YelpReview
p2351
(dp2352
g14
S'3.0'
p2353
sg16
S'2012-03-02'
p2354
sba(iyelp_data_provider
YelpReview
p2355
(dp2356
g14
S'4.0'
p2357
sg16
S'2011-10-14'
p2358
sba(iyelp_data_provider
YelpReview
p2359
(dp2360
g14
S'3.0'
p2361
sg16
S'2011-10-08'
p2362
sba(iyelp_data_provider
YelpReview
p2363
(dp2364
g14
S'4.0'
p2365
sg16
S'2012-02-18'
p2366
sba(iyelp_data_provider
YelpReview
p2367
(dp2368
g14
S'4.0'
p2369
sg16
S'2011-12-28'
p2370
sba(iyelp_data_provider
YelpReview
p2371
(dp2372
g14
S'4.0'
p2373
sg16
S'2012-11-14'
p2374
sba(iyelp_data_provider
YelpReview
p2375
(dp2376
g14
S'4.0'
p2377
sg16
S'2011-08-10'
p2378
sba(iyelp_data_provider
YelpReview
p2379
(dp2380
g14
S'4.0'
p2381
sg16
S'2012-06-07'
p2382
sba(iyelp_data_provider
YelpReview
p2383
(dp2384
g14
S'4.0'
p2385
sg16
S'2011-08-12'
p2386
sba(iyelp_data_provider
YelpReview
p2387
(dp2388
g14
S'3.0'
p2389
sg16
S'2011-07-03'
p2390
sba(iyelp_data_provider
YelpReview
p2391
(dp2392
g14
S'3.0'
p2393
sg16
S'2012-05-24'
p2394
sba(iyelp_data_provider
YelpReview
p2395
(dp2396
g14
S'5.0'
p2397
sg16
S'2011-09-21'
p2398
sba(iyelp_data_provider
YelpReview
p2399
(dp2400
g14
S'4.0'
p2401
sg16
S'2012-03-29'
p2402
sba(iyelp_data_provider
YelpReview
p2403
(dp2404
g14
S'4.0'
p2405
sg16
S'2011-06-10'
p2406
sba(iyelp_data_provider
YelpReview
p2407
(dp2408
g14
S'4.0'
p2409
sg16
S'2012-02-03'
p2410
sba(iyelp_data_provider
YelpReview
p2411
(dp2412
g14
S'4.0'
p2413
sg16
S'2012-01-08'
p2414
sba(iyelp_data_provider
YelpReview
p2415
(dp2416
g14
S'2.0'
p2417
sg16
S'2011-07-14'
p2418
sba(iyelp_data_provider
YelpReview
p2419
(dp2420
g14
S'5.0'
p2421
sg16
S'2012-06-05'
p2422
sba(iyelp_data_provider
YelpReview
p2423
(dp2424
g14
S'5.0'
p2425
sg16
S'2011-06-12'
p2426
sba(iyelp_data_provider
YelpReview
p2427
(dp2428
g14
S'4.0'
p2429
sg16
S'2012-05-15'
p2430
sba(iyelp_data_provider
YelpReview
p2431
(dp2432
g14
S'5.0'
p2433
sg16
S'2011-06-21'
p2434
sba(iyelp_data_provider
YelpReview
p2435
(dp2436
g14
S'4.0'
p2437
sg16
S'2011-04-28'
p2438
sba(iyelp_data_provider
YelpReview
p2439
(dp2440
g14
S'5.0'
p2441
sg16
S'2011-09-25'
p2442
sba(iyelp_data_provider
YelpReview
p2443
(dp2444
g14
S'5.0'
p2445
sg16
S'2011-11-06'
p2446
sba(iyelp_data_provider
YelpReview
p2447
(dp2448
g14
S'4.0'
p2449
sg16
S'2011-04-07'
p2450
sba(iyelp_data_provider
YelpReview
p2451
(dp2452
g14
S'4.0'
p2453
sg16
S'2011-05-29'
p2454
sba(iyelp_data_provider
YelpReview
p2455
(dp2456
g14
S'4.0'
p2457
sg16
S'2012-09-16'
p2458
sba(iyelp_data_provider
YelpReview
p2459
(dp2460
g14
S'5.0'
p2461
sg16
S'2012-09-20'
p2462
sba(iyelp_data_provider
YelpReview
p2463
(dp2464
g14
S'1.0'
p2465
sg16
S'2011-02-28'
p2466
sba(iyelp_data_provider
YelpReview
p2467
(dp2468
g14
S'5.0'
p2469
sg16
S'2011-10-30'
p2470
sba(iyelp_data_provider
YelpReview
p2471
(dp2472
g14
S'4.0'
p2473
sg16
S'2011-02-07'
p2474
sba(iyelp_data_provider
YelpReview
p2475
(dp2476
g14
S'4.0'
p2477
sg16
S'2012-03-23'
p2478
sba(iyelp_data_provider
YelpReview
p2479
(dp2480
g14
S'2.0'
p2481
sg16
S'2012-02-20'
p2482
sba(iyelp_data_provider
YelpReview
p2483
(dp2484
g14
S'4.0'
p2485
sg16
S'2011-03-09'
p2486
sba(iyelp_data_provider
YelpReview
p2487
(dp2488
g14
S'4.0'
p2489
sg16
S'2012-08-01'
p2490
sba(iyelp_data_provider
YelpReview
p2491
(dp2492
g14
S'4.0'
p2493
sg16
S'2012-05-23'
p2494
sba(iyelp_data_provider
YelpReview
p2495
(dp2496
g14
S'4.0'
p2497
sg16
S'2011-07-12'
p2498
sba(iyelp_data_provider
YelpReview
p2499
(dp2500
g14
S'4.0'
p2501
sg16
S'2012-05-08'
p2502
sba(iyelp_data_provider
YelpReview
p2503
(dp2504
g14
S'5.0'
p2505
sg16
S'2008-04-06'
p2506
sba(iyelp_data_provider
YelpReview
p2507
(dp2508
g14
S'5.0'
p2509
sg16
S'2008-09-10'
p2510
sba(iyelp_data_provider
YelpReview
p2511
(dp2512
g14
S'5.0'
p2513
sg16
S'2006-05-15'
p2514
sba(iyelp_data_provider
YelpReview
p2515
(dp2516
g14
S'5.0'
p2517
sg16
S'2009-03-02'
p2518
sba(iyelp_data_provider
YelpReview
p2519
(dp2520
g14
S'4.0'
p2521
sg16
S'2012-09-07'
p2522
sba(iyelp_data_provider
YelpReview
p2523
(dp2524
g14
S'5.0'
p2525
sg16
S'2010-05-12'
p2526
sba(iyelp_data_provider
YelpReview
p2527
(dp2528
g14
S'5.0'
p2529
sg16
S'2007-12-16'
p2530
sba(iyelp_data_provider
YelpReview
p2531
(dp2532
g14
S'4.0'
p2533
sg16
S'2008-12-03'
p2534
sba(iyelp_data_provider
YelpReview
p2535
(dp2536
g14
S'3.0'
p2537
sg16
S'2011-12-15'
p2538
sba(iyelp_data_provider
YelpReview
p2539
(dp2540
g14
S'4.0'
p2541
sg16
S'2005-12-02'
p2542
sba(iyelp_data_provider
YelpReview
p2543
(dp2544
g14
S'4.0'
p2545
sg16
S'2007-10-22'
p2546
sba(iyelp_data_provider
YelpReview
p2547
(dp2548
g14
S'4.0'
p2549
sg16
S'2009-04-18'
p2550
sba(iyelp_data_provider
YelpReview
p2551
(dp2552
g14
S'4.0'
p2553
sg16
S'2008-02-26'
p2554
sba(iyelp_data_provider
YelpReview
p2555
(dp2556
g14
S'4.0'
p2557
sg16
S'2011-08-15'
p2558
sba(iyelp_data_provider
YelpReview
p2559
(dp2560
g14
S'3.0'
p2561
sg16
S'2007-11-05'
p2562
sba(iyelp_data_provider
YelpReview
p2563
(dp2564
g14
S'4.0'
p2565
sg16
S'2009-01-16'
p2566
sba(iyelp_data_provider
YelpReview
p2567
(dp2568
g14
S'5.0'
p2569
sg16
S'2007-05-16'
p2570
sba(iyelp_data_provider
YelpReview
p2571
(dp2572
g14
S'4.0'
p2573
sg16
S'2009-11-17'
p2574
sba(iyelp_data_provider
YelpReview
p2575
(dp2576
g14
S'4.0'
p2577
sg16
S'2007-09-12'
p2578
sba(iyelp_data_provider
YelpReview
p2579
(dp2580
g14
S'4.0'
p2581
sg16
S'2009-09-17'
p2582
sba(iyelp_data_provider
YelpReview
p2583
(dp2584
g14
S'4.0'
p2585
sg16
S'2012-05-09'
p2586
sba(iyelp_data_provider
YelpReview
p2587
(dp2588
g14
S'5.0'
p2589
sg16
S'2011-08-03'
p2590
sba(iyelp_data_provider
YelpReview
p2591
(dp2592
g14
S'5.0'
p2593
sg16
S'2008-08-14'
p2594
sba(iyelp_data_provider
YelpReview
p2595
(dp2596
g14
S'4.0'
p2597
sg16
S'2011-10-22'
p2598
sba(iyelp_data_provider
YelpReview
p2599
(dp2600
g14
S'5.0'
p2601
sg16
S'2010-03-24'
p2602
sba(iyelp_data_provider
YelpReview
p2603
(dp2604
g14
S'5.0'
p2605
sg16
S'2009-01-23'
p2606
sba(iyelp_data_provider
YelpReview
p2607
(dp2608
g14
S'4.0'
p2609
sg16
S'2011-06-19'
p2610
sba(iyelp_data_provider
YelpReview
p2611
(dp2612
g14
S'4.0'
p2613
sg16
S'2006-08-14'
p2614
sba(iyelp_data_provider
YelpReview
p2615
(dp2616
g14
S'5.0'
p2617
sg16
S'2010-09-28'
p2618
sba(iyelp_data_provider
YelpReview
p2619
(dp2620
g14
S'3.0'
p2621
sg16
S'2010-01-05'
p2622
sba(iyelp_data_provider
YelpReview
p2623
(dp2624
g14
S'4.0'
p2625
sg16
S'2006-11-28'
p2626
sba(iyelp_data_provider
YelpReview
p2627
(dp2628
g14
S'3.0'
p2629
sg16
S'2010-06-27'
p2630
sba(iyelp_data_provider
YelpReview
p2631
(dp2632
g14
S'5.0'
p2633
sg16
S'2012-03-03'
p2634
sba(iyelp_data_provider
YelpReview
p2635
(dp2636
g14
S'4.0'
p2637
sg16
S'2006-01-13'
p2638
sba(iyelp_data_provider
YelpReview
p2639
(dp2640
g14
S'4.0'
p2641
sg16
S'2007-10-30'
p2642
sba(iyelp_data_provider
YelpReview
p2643
(dp2644
g14
S'4.0'
p2645
sg16
S'2010-07-16'
p2646
sba(iyelp_data_provider
YelpReview
p2647
(dp2648
g14
S'5.0'
p2649
sg16
S'2011-04-16'
p2650
sba(iyelp_data_provider
YelpReview
p2651
(dp2652
g14
S'4.0'
p2653
sg16
S'2011-08-21'
p2654
sba(iyelp_data_provider
YelpReview
p2655
(dp2656
g14
S'5.0'
p2657
sg16
S'2010-01-11'
p2658
sba(iyelp_data_provider
YelpReview
p2659
(dp2660
g14
S'5.0'
p2661
sg16
S'2009-05-02'
p2662
sba(iyelp_data_provider
YelpReview
p2663
(dp2664
g14
S'4.0'
p2665
sg16
S'2012-03-11'
p2666
sba(iyelp_data_provider
YelpReview
p2667
(dp2668
g14
S'4.0'
p2669
sg16
S'2007-11-01'
p2670
sba(iyelp_data_provider
YelpReview
p2671
(dp2672
g14
S'5.0'
p2673
sg16
S'2011-11-28'
p2674
sba(iyelp_data_provider
YelpReview
p2675
(dp2676
g14
S'2.0'
p2677
sg16
S'2008-07-15'
p2678
sba(iyelp_data_provider
YelpReview
p2679
(dp2680
g14
S'4.0'
p2681
sg16
S'2008-09-29'
p2682
sba(iyelp_data_provider
YelpReview
p2683
(dp2684
g14
S'3.0'
p2685
sg16
S'2008-10-07'
p2686
sba(iyelp_data_provider
YelpReview
p2687
(dp2688
g14
S'4.0'
p2689
sg16
S'2009-07-30'
p2690
sba(iyelp_data_provider
YelpReview
p2691
(dp2692
g14
S'4.0'
p2693
sg16
S'2012-04-15'
p2694
sba(iyelp_data_provider
YelpReview
p2695
(dp2696
g14
S'5.0'
p2697
sg16
S'2012-04-25'
p2698
sba(iyelp_data_provider
YelpReview
p2699
(dp2700
g14
S'4.0'
p2701
sg16
S'2007-06-18'
p2702
sba(iyelp_data_provider
YelpReview
p2703
(dp2704
g14
S'5.0'
p2705
sg16
S'2007-12-22'
p2706
sba(iyelp_data_provider
YelpReview
p2707
(dp2708
g14
S'4.0'
p2709
sg16
S'2010-02-16'
p2710
sba(iyelp_data_provider
YelpReview
p2711
(dp2712
g14
S'5.0'
p2713
sg16
S'2006-09-15'
p2714
sba(iyelp_data_provider
YelpReview
p2715
(dp2716
g14
S'5.0'
p2717
sg16
S'2009-01-05'
p2718
sba(iyelp_data_provider
YelpReview
p2719
(dp2720
g14
S'3.0'
p2721
sg16
S'2009-10-17'
p2722
sba(iyelp_data_provider
YelpReview
p2723
(dp2724
g14
S'3.0'
p2725
sg16
S'2008-06-10'
p2726
sba(iyelp_data_provider
YelpReview
p2727
(dp2728
g14
S'5.0'
p2729
sg16
S'2010-01-21'
p2730
sba(iyelp_data_provider
YelpReview
p2731
(dp2732
g14
S'5.0'
p2733
sg16
S'2007-09-26'
p2734
sba(iyelp_data_provider
YelpReview
p2735
(dp2736
g14
S'5.0'
p2737
sg16
S'2009-12-22'
p2738
sba(iyelp_data_provider
YelpReview
p2739
(dp2740
g14
S'5.0'
p2741
sg16
S'2010-09-23'
p2742
sba(iyelp_data_provider
YelpReview
p2743
(dp2744
g14
S'5.0'
p2745
sg16
S'2012-01-27'
p2746
sba(iyelp_data_provider
YelpReview
p2747
(dp2748
g14
S'5.0'
p2749
sg16
S'2008-02-15'
p2750
sba(iyelp_data_provider
YelpReview
p2751
(dp2752
g14
S'5.0'
p2753
sg16
S'2008-08-23'
p2754
sba(iyelp_data_provider
YelpReview
p2755
(dp2756
g14
S'5.0'
p2757
sg16
S'2006-12-15'
p2758
sba(iyelp_data_provider
YelpReview
p2759
(dp2760
g14
S'4.0'
p2761
sg16
S'2006-08-28'
p2762
sba(iyelp_data_provider
YelpReview
p2763
(dp2764
g14
S'4.0'
p2765
sg16
S'2011-03-13'
p2766
sba(iyelp_data_provider
YelpReview
p2767
(dp2768
g14
S'5.0'
p2769
sg16
S'2012-07-06'
p2770
sba(iyelp_data_provider
YelpReview
p2771
(dp2772
g14
S'3.0'
p2773
sg16
S'2006-12-15'
p2774
sba(iyelp_data_provider
YelpReview
p2775
(dp2776
g14
S'4.0'
p2777
sg16
S'2008-05-15'
p2778
sba(iyelp_data_provider
YelpReview
p2779
(dp2780
g14
S'5.0'
p2781
sg16
S'2008-11-23'
p2782
sba(iyelp_data_provider
YelpReview
p2783
(dp2784
g14
S'4.0'
p2785
sg16
S'2007-09-02'
p2786
sba(iyelp_data_provider
YelpReview
p2787
(dp2788
g14
S'4.0'
p2789
sg16
S'2010-09-01'
p2790
sba(iyelp_data_provider
YelpReview
p2791
(dp2792
g14
S'4.0'
p2793
sg16
S'2012-01-19'
p2794
sba(iyelp_data_provider
YelpReview
p2795
(dp2796
g14
S'3.0'
p2797
sg16
S'2010-02-18'
p2798
sba(iyelp_data_provider
YelpReview
p2799
(dp2800
g14
S'4.0'
p2801
sg16
S'2011-01-23'
p2802
sba(iyelp_data_provider
YelpReview
p2803
(dp2804
g14
S'3.0'
p2805
sg16
S'2009-02-28'
p2806
sba(iyelp_data_provider
YelpReview
p2807
(dp2808
g14
S'3.0'
p2809
sg16
S'2009-11-19'
p2810
sba(iyelp_data_provider
YelpReview
p2811
(dp2812
g14
S'4.0'
p2813
sg16
S'2009-12-28'
p2814
sba(iyelp_data_provider
YelpReview
p2815
(dp2816
g14
S'3.0'
p2817
sg16
S'2009-04-07'
p2818
sba(iyelp_data_provider
YelpReview
p2819
(dp2820
g14
S'4.0'
p2821
sg16
S'2008-12-15'
p2822
sba(iyelp_data_provider
YelpReview
p2823
(dp2824
g14
S'4.0'
p2825
sg16
S'2008-06-09'
p2826
sba(iyelp_data_provider
YelpReview
p2827
(dp2828
g14
S'4.0'
p2829
sg16
S'2008-03-24'
p2830
sba(iyelp_data_provider
YelpReview
p2831
(dp2832
g14
S'5.0'
p2833
sg16
S'2012-01-27'
p2834
sba(iyelp_data_provider
YelpReview
p2835
(dp2836
g14
S'3.0'
p2837
sg16
S'2008-08-14'
p2838
sba(iyelp_data_provider
YelpReview
p2839
(dp2840
g14
S'5.0'
p2841
sg16
S'2008-09-23'
p2842
sba(iyelp_data_provider
YelpReview
p2843
(dp2844
g14
S'4.0'
p2845
sg16
S'2012-07-09'
p2846
sba(iyelp_data_provider
YelpReview
p2847
(dp2848
g14
S'5.0'
p2849
sg16
S'2008-01-06'
p2850
sba(iyelp_data_provider
YelpReview
p2851
(dp2852
g14
S'5.0'
p2853
sg16
S'2008-10-08'
p2854
sba(iyelp_data_provider
YelpReview
p2855
(dp2856
g14
S'3.0'
p2857
sg16
S'2010-04-11'
p2858
sba(iyelp_data_provider
YelpReview
p2859
(dp2860
g14
S'4.0'
p2861
sg16
S'2010-05-02'
p2862
sba(iyelp_data_provider
YelpReview
p2863
(dp2864
g14
S'4.0'
p2865
sg16
S'2010-11-22'
p2866
sba(iyelp_data_provider
YelpReview
p2867
(dp2868
g14
S'5.0'
p2869
sg16
S'2006-10-16'
p2870
sba(iyelp_data_provider
YelpReview
p2871
(dp2872
g14
S'5.0'
p2873
sg16
S'2009-01-08'
p2874
sba(iyelp_data_provider
YelpReview
p2875
(dp2876
g14
S'4.0'
p2877
sg16
S'2009-07-28'
p2878
sba(iyelp_data_provider
YelpReview
p2879
(dp2880
g14
S'4.0'
p2881
sg16
S'2010-01-27'
p2882
sba(iyelp_data_provider
YelpReview
p2883
(dp2884
g14
S'2.0'
p2885
sg16
S'2010-09-11'
p2886
sba(iyelp_data_provider
YelpReview
p2887
(dp2888
g14
S'3.0'
p2889
sg16
S'2008-03-07'
p2890
sba(iyelp_data_provider
YelpReview
p2891
(dp2892
g14
S'5.0'
p2893
sg16
S'2009-02-10'
p2894
sba(iyelp_data_provider
YelpReview
p2895
(dp2896
g14
S'5.0'
p2897
sg16
S'2010-05-06'
p2898
sba(iyelp_data_provider
YelpReview
p2899
(dp2900
g14
S'5.0'
p2901
sg16
S'2011-07-01'
p2902
sba(iyelp_data_provider
YelpReview
p2903
(dp2904
g14
S'5.0'
p2905
sg16
S'2007-07-11'
p2906
sba(iyelp_data_provider
YelpReview
p2907
(dp2908
g14
S'5.0'
p2909
sg16
S'2007-10-28'
p2910
sba(iyelp_data_provider
YelpReview
p2911
(dp2912
g14
S'2.0'
p2913
sg16
S'2011-02-06'
p2914
sba(iyelp_data_provider
YelpReview
p2915
(dp2916
g14
S'3.0'
p2917
sg16
S'2007-06-14'
p2918
sba(iyelp_data_provider
YelpReview
p2919
(dp2920
g14
S'5.0'
p2921
sg16
S'2010-04-23'
p2922
sba(iyelp_data_provider
YelpReview
p2923
(dp2924
g14
S'5.0'
p2925
sg16
S'2011-11-15'
p2926
sba(iyelp_data_provider
YelpReview
p2927
(dp2928
g14
S'5.0'
p2929
sg16
S'2008-11-26'
p2930
sba(iyelp_data_provider
YelpReview
p2931
(dp2932
g14
S'4.0'
p2933
sg16
S'2010-03-31'
p2934
sba(iyelp_data_provider
YelpReview
p2935
(dp2936
g14
S'5.0'
p2937
sg16
S'2010-07-15'
p2938
sba(iyelp_data_provider
YelpReview
p2939
(dp2940
g14
S'5.0'
p2941
sg16
S'2008-10-02'
p2942
sba(iyelp_data_provider
YelpReview
p2943
(dp2944
g14
S'2.0'
p2945
sg16
S'2011-03-12'
p2946
sba(iyelp_data_provider
YelpReview
p2947
(dp2948
g14
S'4.0'
p2949
sg16
S'2008-09-20'
p2950
sba(iyelp_data_provider
YelpReview
p2951
(dp2952
g14
S'5.0'
p2953
sg16
S'2009-11-03'
p2954
sba(iyelp_data_provider
YelpReview
p2955
(dp2956
g14
S'4.0'
p2957
sg16
S'2010-03-22'
p2958
sba(iyelp_data_provider
YelpReview
p2959
(dp2960
g14
S'4.0'
p2961
sg16
S'2010-05-27'
p2962
sba(iyelp_data_provider
YelpReview
p2963
(dp2964
g14
S'4.0'
p2965
sg16
S'2011-10-23'
p2966
sba(iyelp_data_provider
YelpReview
p2967
(dp2968
g14
S'3.0'
p2969
sg16
S'2008-01-29'
p2970
sba(iyelp_data_provider
YelpReview
p2971
(dp2972
g14
S'5.0'
p2973
sg16
S'2010-07-12'
p2974
sba(iyelp_data_provider
YelpReview
p2975
(dp2976
g14
S'5.0'
p2977
sg16
S'2010-08-22'
p2978
sba(iyelp_data_provider
YelpReview
p2979
(dp2980
g14
S'5.0'
p2981
sg16
S'2012-02-08'
p2982
sba(iyelp_data_provider
YelpReview
p2983
(dp2984
g14
S'5.0'
p2985
sg16
S'2008-07-06'
p2986
sba(iyelp_data_provider
YelpReview
p2987
(dp2988
g14
S'5.0'
p2989
sg16
S'2010-06-11'
p2990
sba(iyelp_data_provider
YelpReview
p2991
(dp2992
g14
S'4.0'
p2993
sg16
S'2010-12-11'
p2994
sba(iyelp_data_provider
YelpReview
p2995
(dp2996
g14
S'4.0'
p2997
sg16
S'2011-04-04'
p2998
sba(iyelp_data_provider
YelpReview
p2999
(dp3000
g14
S'5.0'
p3001
sg16
S'2012-02-17'
p3002
sba(iyelp_data_provider
YelpReview
p3003
(dp3004
g14
S'4.0'
p3005
sg16
S'2011-10-23'
p3006
sba(iyelp_data_provider
YelpReview
p3007
(dp3008
g14
S'5.0'
p3009
sg16
S'2010-02-20'
p3010
sba(iyelp_data_provider
YelpReview
p3011
(dp3012
g14
S'5.0'
p3013
sg16
S'2010-07-29'
p3014
sba(iyelp_data_provider
YelpReview
p3015
(dp3016
g14
S'4.0'
p3017
sg16
S'2010-06-02'
p3018
sba(iyelp_data_provider
YelpReview
p3019
(dp3020
g14
S'4.0'
p3021
sg16
S'2009-02-16'
p3022
sba(iyelp_data_provider
YelpReview
p3023
(dp3024
g14
S'4.0'
p3025
sg16
S'2010-01-09'
p3026
sba(iyelp_data_provider
YelpReview
p3027
(dp3028
g14
S'5.0'
p3029
sg16
S'2010-05-01'
p3030
sba(iyelp_data_provider
YelpReview
p3031
(dp3032
g14
S'4.0'
p3033
sg16
S'2010-05-15'
p3034
sba(iyelp_data_provider
YelpReview
p3035
(dp3036
g14
S'5.0'
p3037
sg16
S'2010-09-29'
p3038
sba(iyelp_data_provider
YelpReview
p3039
(dp3040
g14
S'4.0'
p3041
sg16
S'2011-03-27'
p3042
sba(iyelp_data_provider
YelpReview
p3043
(dp3044
g14
S'5.0'
p3045
sg16
S'2009-02-10'
p3046
sba(iyelp_data_provider
YelpReview
p3047
(dp3048
g14
S'5.0'
p3049
sg16
S'2010-01-09'
p3050
sba(iyelp_data_provider
YelpReview
p3051
(dp3052
g14
S'3.0'
p3053
sg16
S'2012-03-05'
p3054
sba(iyelp_data_provider
YelpReview
p3055
(dp3056
g14
S'4.0'
p3057
sg16
S'2010-10-01'
p3058
sba(iyelp_data_provider
YelpReview
p3059
(dp3060
g14
S'4.0'
p3061
sg16
S'2007-06-01'
p3062
sba(iyelp_data_provider
YelpReview
p3063
(dp3064
g14
S'4.0'
p3065
sg16
S'2009-07-19'
p3066
sba(iyelp_data_provider
YelpReview
p3067
(dp3068
g14
S'5.0'
p3069
sg16
S'2012-02-06'
p3070
sba(iyelp_data_provider
YelpReview
p3071
(dp3072
g14
S'5.0'
p3073
sg16
S'2007-04-27'
p3074
sba(iyelp_data_provider
YelpReview
p3075
(dp3076
g14
S'4.0'
p3077
sg16
S'2010-10-31'
p3078
sba(iyelp_data_provider
YelpReview
p3079
(dp3080
g14
S'3.0'
p3081
sg16
S'2008-12-15'
p3082
sba(iyelp_data_provider
YelpReview
p3083
(dp3084
g14
S'5.0'
p3085
sg16
S'2009-12-22'
p3086
sba(iyelp_data_provider
YelpReview
p3087
(dp3088
g14
S'5.0'
p3089
sg16
S'2010-05-07'
p3090
sba(iyelp_data_provider
YelpReview
p3091
(dp3092
g14
S'5.0'
p3093
sg16
S'2010-11-16'
p3094
sba(iyelp_data_provider
YelpReview
p3095
(dp3096
g14
S'5.0'
p3097
sg16
S'2011-01-08'
p3098
sba(iyelp_data_provider
YelpReview
p3099
(dp3100
g14
S'5.0'
p3101
sg16
S'2009-07-03'
p3102
sba(iyelp_data_provider
YelpReview
p3103
(dp3104
g14
S'5.0'
p3105
sg16
S'2010-10-08'
p3106
sba(iyelp_data_provider
YelpReview
p3107
(dp3108
g14
S'4.0'
p3109
sg16
S'2008-09-12'
p3110
sba(iyelp_data_provider
YelpReview
p3111
(dp3112
g14
S'4.0'
p3113
sg16
S'2012-02-08'
p3114
sba(iyelp_data_provider
YelpReview
p3115
(dp3116
g14
S'4.0'
p3117
sg16
S'2011-12-02'
p3118
sba(iyelp_data_provider
YelpReview
p3119
(dp3120
g14
S'4.0'
p3121
sg16
S'2009-07-02'
p3122
sba(iyelp_data_provider
YelpReview
p3123
(dp3124
g14
S'4.0'
p3125
sg16
S'2009-07-22'
p3126
sba(iyelp_data_provider
YelpReview
p3127
(dp3128
g14
S'4.0'
p3129
sg16
S'2009-08-21'
p3130
sba(iyelp_data_provider
YelpReview
p3131
(dp3132
g14
S'4.0'
p3133
sg16
S'2009-10-05'
p3134
sba(iyelp_data_provider
YelpReview
p3135
(dp3136
g14
S'4.0'
p3137
sg16
S'2009-12-20'
p3138
sba(iyelp_data_provider
YelpReview
p3139
(dp3140
g14
S'5.0'
p3141
sg16
S'2010-04-03'
p3142
sba(iyelp_data_provider
YelpReview
p3143
(dp3144
g14
S'3.0'
p3145
sg16
S'2010-06-21'
p3146
sba(iyelp_data_provider
YelpReview
p3147
(dp3148
g14
S'4.0'
p3149
sg16
S'2012-01-29'
p3150
sba(iyelp_data_provider
YelpReview
p3151
(dp3152
g14
S'5.0'
p3153
sg16
S'2011-01-30'
p3154
sba(iyelp_data_provider
YelpReview
p3155
(dp3156
g14
S'5.0'
p3157
sg16
S'2011-01-23'
p3158
sba(iyelp_data_provider
YelpReview
p3159
(dp3160
g14
S'4.0'
p3161
sg16
S'2006-06-02'
p3162
sba(iyelp_data_provider
YelpReview
p3163
(dp3164
g14
S'4.0'
p3165
sg16
S'2007-11-19'
p3166
sba(iyelp_data_provider
YelpReview
p3167
(dp3168
g14
S'3.0'
p3169
sg16
S'2009-10-27'
p3170
sba(iyelp_data_provider
YelpReview
p3171
(dp3172
g14
S'4.0'
p3173
sg16
S'2006-04-16'
p3174
sba(iyelp_data_provider
YelpReview
p3175
(dp3176
g14
S'4.0'
p3177
sg16
S'2009-02-02'
p3178
sba(iyelp_data_provider
YelpReview
p3179
(dp3180
g14
S'4.0'
p3181
sg16
S'2009-04-30'
p3182
sba(iyelp_data_provider
YelpReview
p3183
(dp3184
g14
S'3.0'
p3185
sg16
S'2009-06-18'
p3186
sba(iyelp_data_provider
YelpReview
p3187
(dp3188
g14
S'4.0'
p3189
sg16
S'2009-10-28'
p3190
sba(iyelp_data_provider
YelpReview
p3191
(dp3192
g14
S'4.0'
p3193
sg16
S'2011-11-11'
p3194
sba(iyelp_data_provider
YelpReview
p3195
(dp3196
g14
S'3.0'
p3197
sg16
S'2008-03-10'
p3198
sba(iyelp_data_provider
YelpReview
p3199
(dp3200
g14
S'5.0'
p3201
sg16
S'2011-11-08'
p3202
sba(iyelp_data_provider
YelpReview
p3203
(dp3204
g14
S'5.0'
p3205
sg16
S'2008-06-14'
p3206
sba(iyelp_data_provider
YelpReview
p3207
(dp3208
g14
S'4.0'
p3209
sg16
S'2008-09-03'
p3210
sba(iyelp_data_provider
YelpReview
p3211
(dp3212
g14
S'3.0'
p3213
sg16
S'2010-04-11'
p3214
sba(iyelp_data_provider
YelpReview
p3215
(dp3216
g14
S'3.0'
p3217
sg16
S'2012-01-24'
p3218
sba(iyelp_data_provider
YelpReview
p3219
(dp3220
g14
S'4.0'
p3221
sg16
S'2011-02-01'
p3222
sba(iyelp_data_provider
YelpReview
p3223
(dp3224
g14
S'5.0'
p3225
sg16
S'2009-04-09'
p3226
sba(iyelp_data_provider
YelpReview
p3227
(dp3228
g14
S'4.0'
p3229
sg16
S'2009-12-22'
p3230
sba(iyelp_data_provider
YelpReview
p3231
(dp3232
g14
S'3.0'
p3233
sg16
S'2009-05-12'
p3234
sba(iyelp_data_provider
YelpReview
p3235
(dp3236
g14
S'5.0'
p3237
sg16
S'2009-05-12'
p3238
sba(iyelp_data_provider
YelpReview
p3239
(dp3240
g14
S'5.0'
p3241
sg16
S'2010-10-17'
p3242
sba(iyelp_data_provider
YelpReview
p3243
(dp3244
g14
S'4.0'
p3245
sg16
S'2011-11-21'
p3246
sba(iyelp_data_provider
YelpReview
p3247
(dp3248
g14
S'3.0'
p3249
sg16
S'2006-03-11'
p3250
sba(iyelp_data_provider
YelpReview
p3251
(dp3252
g14
S'3.0'
p3253
sg16
S'2009-08-11'
p3254
sba(iyelp_data_provider
YelpReview
p3255
(dp3256
g14
S'4.0'
p3257
sg16
S'2009-12-15'
p3258
sba(iyelp_data_provider
YelpReview
p3259
(dp3260
g14
S'4.0'
p3261
sg16
S'2011-12-22'
p3262
sba(iyelp_data_provider
YelpReview
p3263
(dp3264
g14
S'5.0'
p3265
sg16
S'2010-12-22'
p3266
sba(iyelp_data_provider
YelpReview
p3267
(dp3268
g14
S'5.0'
p3269
sg16
S'2011-01-16'
p3270
sba(iyelp_data_provider
YelpReview
p3271
(dp3272
g14
S'4.0'
p3273
sg16
S'2009-03-25'
p3274
sba(iyelp_data_provider
YelpReview
p3275
(dp3276
g14
S'3.0'
p3277
sg16
S'2011-09-29'
p3278
sba(iyelp_data_provider
YelpReview
p3279
(dp3280
g14
S'5.0'
p3281
sg16
S'2011-12-25'
p3282
sba(iyelp_data_provider
YelpReview
p3283
(dp3284
g14
S'5.0'
p3285
sg16
S'2011-11-10'
p3286
sba(iyelp_data_provider
YelpReview
p3287
(dp3288
g14
S'5.0'
p3289
sg16
S'2011-11-06'
p3290
sba(iyelp_data_provider
YelpReview
p3291
(dp3292
g14
S'4.0'
p3293
sg16
S'2011-04-13'
p3294
sba(iyelp_data_provider
YelpReview
p3295
(dp3296
g14
S'4.0'
p3297
sg16
S'2011-10-25'
p3298
sba(iyelp_data_provider
YelpReview
p3299
(dp3300
g14
S'3.0'
p3301
sg16
S'2009-04-29'
p3302
sba(iyelp_data_provider
YelpReview
p3303
(dp3304
g14
S'5.0'
p3305
sg16
S'2009-07-12'
p3306
sba(iyelp_data_provider
YelpReview
p3307
(dp3308
g14
S'5.0'
p3309
sg16
S'2010-02-17'
p3310
sba(iyelp_data_provider
YelpReview
p3311
(dp3312
g14
S'5.0'
p3313
sg16
S'2010-10-25'
p3314
sba(iyelp_data_provider
YelpReview
p3315
(dp3316
g14
S'5.0'
p3317
sg16
S'2011-09-03'
p3318
sba(iyelp_data_provider
YelpReview
p3319
(dp3320
g14
S'4.0'
p3321
sg16
S'2007-10-29'
p3322
sba(iyelp_data_provider
YelpReview
p3323
(dp3324
g14
S'4.0'
p3325
sg16
S'2009-04-06'
p3326
sba(iyelp_data_provider
YelpReview
p3327
(dp3328
g14
S'4.0'
p3329
sg16
S'2011-10-02'
p3330
sba(iyelp_data_provider
YelpReview
p3331
(dp3332
g14
S'3.0'
p3333
sg16
S'2011-11-20'
p3334
sba(iyelp_data_provider
YelpReview
p3335
(dp3336
g14
S'5.0'
p3337
sg16
S'2011-10-01'
p3338
sba(iyelp_data_provider
YelpReview
p3339
(dp3340
g14
S'4.0'
p3341
sg16
S'2010-02-19'
p3342
sba(iyelp_data_provider
YelpReview
p3343
(dp3344
g14
S'3.0'
p3345
sg16
S'2006-03-25'
p3346
sba(iyelp_data_provider
YelpReview
p3347
(dp3348
g14
S'4.0'
p3349
sg16
S'2010-05-03'
p3350
sba(iyelp_data_provider
YelpReview
p3351
(dp3352
g14
S'4.0'
p3353
sg16
S'2008-06-23'
p3354
sba(iyelp_data_provider
YelpReview
p3355
(dp3356
g14
S'5.0'
p3357
sg16
S'2008-11-18'
p3358
sba(iyelp_data_provider
YelpReview
p3359
(dp3360
g14
S'4.0'
p3361
sg16
S'2009-05-17'
p3362
sba(iyelp_data_provider
YelpReview
p3363
(dp3364
g14
S'1.0'
p3365
sg16
S'2006-06-26'
p3366
sba(iyelp_data_provider
YelpReview
p3367
(dp3368
g14
S'5.0'
p3369
sg16
S'2011-04-10'
p3370
sba(iyelp_data_provider
YelpReview
p3371
(dp3372
g14
S'4.0'
p3373
sg16
S'2009-01-19'
p3374
sba(iyelp_data_provider
YelpReview
p3375
(dp3376
g14
S'5.0'
p3377
sg16
S'2008-07-02'
p3378
sba(iyelp_data_provider
YelpReview
p3379
(dp3380
g14
S'5.0'
p3381
sg16
S'2008-08-06'
p3382
sba(iyelp_data_provider
YelpReview
p3383
(dp3384
g14
S'5.0'
p3385
sg16
S'2011-02-09'
p3386
sba(iyelp_data_provider
YelpReview
p3387
(dp3388
g14
S'5.0'
p3389
sg16
S'2010-07-26'
p3390
sba(iyelp_data_provider
YelpReview
p3391
(dp3392
g14
S'5.0'
p3393
sg16
S'2011-10-17'
p3394
sba(iyelp_data_provider
YelpReview
p3395
(dp3396
g14
S'3.0'
p3397
sg16
S'2010-01-31'
p3398
sba(iyelp_data_provider
YelpReview
p3399
(dp3400
g14
S'5.0'
p3401
sg16
S'2008-10-14'
p3402
sba(iyelp_data_provider
YelpReview
p3403
(dp3404
g14
S'4.0'
p3405
sg16
S'2010-02-02'
p3406
sba(iyelp_data_provider
YelpReview
p3407
(dp3408
g14
S'5.0'
p3409
sg16
S'2008-08-13'
p3410
sba(iyelp_data_provider
YelpReview
p3411
(dp3412
g14
S'4.0'
p3413
sg16
S'2008-01-19'
p3414
sba(iyelp_data_provider
YelpReview
p3415
(dp3416
g14
S'4.0'
p3417
sg16
S'2011-03-07'
p3418
sba(iyelp_data_provider
YelpReview
p3419
(dp3420
g14
S'4.0'
p3421
sg16
S'2008-07-27'
p3422
sba(iyelp_data_provider
YelpReview
p3423
(dp3424
g14
S'5.0'
p3425
sg16
S'2011-04-28'
p3426
sba(iyelp_data_provider
YelpReview
p3427
(dp3428
g14
S'5.0'
p3429
sg16
S'2009-04-20'
p3430
sba(iyelp_data_provider
YelpReview
p3431
(dp3432
g14
S'4.0'
p3433
sg16
S'2011-09-19'
p3434
sba(iyelp_data_provider
YelpReview
p3435
(dp3436
g14
S'4.0'
p3437
sg16
S'2008-10-30'
p3438
sba(iyelp_data_provider
YelpReview
p3439
(dp3440
g14
S'4.0'
p3441
sg16
S'2008-07-25'
p3442
sba(iyelp_data_provider
YelpReview
p3443
(dp3444
g14
S'4.0'
p3445
sg16
S'2010-05-10'
p3446
sba(iyelp_data_provider
YelpReview
p3447
(dp3448
g14
S'3.0'
p3449
sg16
S'2011-04-17'
p3450
sba(iyelp_data_provider
YelpReview
p3451
(dp3452
g14
S'4.0'
p3453
sg16
S'2007-11-22'
p3454
sba(iyelp_data_provider
YelpReview
p3455
(dp3456
g14
S'4.0'
p3457
sg16
S'2010-11-08'
p3458
sba(iyelp_data_provider
YelpReview
p3459
(dp3460
g14
S'3.0'
p3461
sg16
S'2010-04-17'
p3462
sba(iyelp_data_provider
YelpReview
p3463
(dp3464
g14
S'4.0'
p3465
sg16
S'2009-02-15'
p3466
sba(iyelp_data_provider
YelpReview
p3467
(dp3468
g14
S'4.0'
p3469
sg16
S'2009-05-12'
p3470
sba(iyelp_data_provider
YelpReview
p3471
(dp3472
g14
S'5.0'
p3473
sg16
S'2010-03-13'
p3474
sba(iyelp_data_provider
YelpReview
p3475
(dp3476
g14
S'5.0'
p3477
sg16
S'2008-08-22'
p3478
sba(iyelp_data_provider
YelpReview
p3479
(dp3480
g14
S'5.0'
p3481
sg16
S'2010-01-27'
p3482
sba(iyelp_data_provider
YelpReview
p3483
(dp3484
g14
S'4.0'
p3485
sg16
S'2008-10-04'
p3486
sba(iyelp_data_provider
YelpReview
p3487
(dp3488
g14
S'2.0'
p3489
sg16
S'2008-02-21'
p3490
sba(iyelp_data_provider
YelpReview
p3491
(dp3492
g14
S'3.0'
p3493
sg16
S'2011-01-21'
p3494
sba(iyelp_data_provider
YelpReview
p3495
(dp3496
g14
S'4.0'
p3497
sg16
S'2010-02-01'
p3498
sba(iyelp_data_provider
YelpReview
p3499
(dp3500
g14
S'4.0'
p3501
sg16
S'2010-02-01'
p3502
sba(iyelp_data_provider
YelpReview
p3503
(dp3504
g14
S'4.0'
p3505
sg16
S'2010-04-04'
p3506
sba(iyelp_data_provider
YelpReview
p3507
(dp3508
g14
S'3.0'
p3509
sg16
S'2006-12-28'
p3510
sba(iyelp_data_provider
YelpReview
p3511
(dp3512
g14
S'4.0'
p3513
sg16
S'2007-09-11'
p3514
sba(iyelp_data_provider
YelpReview
p3515
(dp3516
g14
S'5.0'
p3517
sg16
S'2010-06-16'
p3518
sba(iyelp_data_provider
YelpReview
p3519
(dp3520
g14
S'5.0'
p3521
sg16
S'2011-03-31'
p3522
sba(iyelp_data_provider
YelpReview
p3523
(dp3524
g14
S'4.0'
p3525
sg16
S'2008-11-11'
p3526
sba(iyelp_data_provider
YelpReview
p3527
(dp3528
g14
S'5.0'
p3529
sg16
S'2008-10-11'
p3530
sba(iyelp_data_provider
YelpReview
p3531
(dp3532
g14
S'4.0'
p3533
sg16
S'2011-06-29'
p3534
sba(iyelp_data_provider
YelpReview
p3535
(dp3536
g14
S'5.0'
p3537
sg16
S'2011-06-03'
p3538
sba(iyelp_data_provider
YelpReview
p3539
(dp3540
g14
S'3.0'
p3541
sg16
S'2006-11-29'
p3542
sba(iyelp_data_provider
YelpReview
p3543
(dp3544
g14
S'4.0'
p3545
sg16
S'2011-03-20'
p3546
sba(iyelp_data_provider
YelpReview
p3547
(dp3548
g14
S'4.0'
p3549
sg16
S'2011-06-20'
p3550
sba(iyelp_data_provider
YelpReview
p3551
(dp3552
g14
S'4.0'
p3553
sg16
S'2008-12-08'
p3554
sba(iyelp_data_provider
YelpReview
p3555
(dp3556
g14
S'4.0'
p3557
sg16
S'2011-06-19'
p3558
sba(iyelp_data_provider
YelpReview
p3559
(dp3560
g14
S'5.0'
p3561
sg16
S'2010-12-19'
p3562
sba(iyelp_data_provider
YelpReview
p3563
(dp3564
g14
S'5.0'
p3565
sg16
S'2012-03-28'
p3566
sba(iyelp_data_provider
YelpReview
p3567
(dp3568
g14
S'5.0'
p3569
sg16
S'2010-11-08'
p3570
sba(iyelp_data_provider
YelpReview
p3571
(dp3572
g14
S'4.0'
p3573
sg16
S'2006-05-26'
p3574
sba(iyelp_data_provider
YelpReview
p3575
(dp3576
g14
S'4.0'
p3577
sg16
S'2009-02-10'
p3578
sba(iyelp_data_provider
YelpReview
p3579
(dp3580
g14
S'5.0'
p3581
sg16
S'2008-06-20'
p3582
sba(iyelp_data_provider
YelpReview
p3583
(dp3584
g14
S'4.0'
p3585
sg16
S'2009-01-25'
p3586
sba(iyelp_data_provider
YelpReview
p3587
(dp3588
g14
S'4.0'
p3589
sg16
S'2010-11-28'
p3590
sba(iyelp_data_provider
YelpReview
p3591
(dp3592
g14
S'5.0'
p3593
sg16
S'2011-06-21'
p3594
sba(iyelp_data_provider
YelpReview
p3595
(dp3596
g14
S'4.0'
p3597
sg16
S'2011-04-02'
p3598
sba(iyelp_data_provider
YelpReview
p3599
(dp3600
g14
S'4.0'
p3601
sg16
S'2009-10-11'
p3602
sba(iyelp_data_provider
YelpReview
p3603
(dp3604
g14
S'5.0'
p3605
sg16
S'2010-09-29'
p3606
sba(iyelp_data_provider
YelpReview
p3607
(dp3608
g14
S'3.0'
p3609
sg16
S'2010-10-13'
p3610
sba(iyelp_data_provider
YelpReview
p3611
(dp3612
g14
S'5.0'
p3613
sg16
S'2010-01-26'
p3614
sba(iyelp_data_provider
YelpReview
p3615
(dp3616
g14
S'4.0'
p3617
sg16
S'2010-06-24'
p3618
sba(iyelp_data_provider
YelpReview
p3619
(dp3620
g14
S'5.0'
p3621
sg16
S'2010-06-05'
p3622
sba(iyelp_data_provider
YelpReview
p3623
(dp3624
g14
S'4.0'
p3625
sg16
S'2007-08-23'
p3626
sba(iyelp_data_provider
YelpReview
p3627
(dp3628
g14
S'3.0'
p3629
sg16
S'2010-10-03'
p3630
sba(iyelp_data_provider
YelpReview
p3631
(dp3632
g14
S'4.0'
p3633
sg16
S'2010-03-04'
p3634
sba(iyelp_data_provider
YelpReview
p3635
(dp3636
g14
S'4.0'
p3637
sg16
S'2010-04-04'
p3638
sba(iyelp_data_provider
YelpReview
p3639
(dp3640
g14
S'4.0'
p3641
sg16
S'2011-04-29'
p3642
sba(iyelp_data_provider
YelpReview
p3643
(dp3644
g14
S'2.0'
p3645
sg16
S'2005-12-13'
p3646
sba(iyelp_data_provider
YelpReview
p3647
(dp3648
g14
S'5.0'
p3649
sg16
S'2010-11-05'
p3650
sba(iyelp_data_provider
YelpReview
p3651
(dp3652
g14
S'4.0'
p3653
sg16
S'2011-01-21'
p3654
sba(iyelp_data_provider
YelpReview
p3655
(dp3656
g14
S'3.0'
p3657
sg16
S'2010-11-29'
p3658
sba(iyelp_data_provider
YelpReview
p3659
(dp3660
g14
S'4.0'
p3661
sg16
S'2011-03-17'
p3662
sba(iyelp_data_provider
YelpReview
p3663
(dp3664
g14
S'1.0'
p3665
sg16
S'2006-06-13'
p3666
sba(iyelp_data_provider
YelpReview
p3667
(dp3668
g14
S'5.0'
p3669
sg16
S'2011-04-21'
p3670
sba(iyelp_data_provider
YelpReview
p3671
(dp3672
g14
S'4.0'
p3673
sg16
S'2009-02-05'
p3674
sba(iyelp_data_provider
YelpReview
p3675
(dp3676
g14
S'5.0'
p3677
sg16
S'2011-03-26'
p3678
sba(iyelp_data_provider
YelpReview
p3679
(dp3680
g14
S'5.0'
p3681
sg16
S'2010-11-14'
p3682
sba(iyelp_data_provider
YelpReview
p3683
(dp3684
g14
S'5.0'
p3685
sg16
S'2011-01-08'
p3686
sba(iyelp_data_provider
YelpReview
p3687
(dp3688
g14
S'4.0'
p3689
sg16
S'2010-10-30'
p3690
sba(iyelp_data_provider
YelpReview
p3691
(dp3692
g14
S'5.0'
p3693
sg16
S'2011-02-22'
p3694
sba(iyelp_data_provider
YelpReview
p3695
(dp3696
g14
S'4.0'
p3697
sg16
S'2009-02-26'
p3698
sba(iyelp_data_provider
YelpReview
p3699
(dp3700
g14
S'4.0'
p3701
sg16
S'2011-03-20'
p3702
sba(iyelp_data_provider
YelpReview
p3703
(dp3704
g14
S'2.0'
p3705
sg16
S'2008-09-03'
p3706
sba(iyelp_data_provider
YelpReview
p3707
(dp3708
g14
S'4.0'
p3709
sg16
S'2008-10-27'
p3710
sba(iyelp_data_provider
YelpReview
p3711
(dp3712
g14
S'4.0'
p3713
sg16
S'2009-08-07'
p3714
sba(iyelp_data_provider
YelpReview
p3715
(dp3716
g14
S'4.0'
p3717
sg16
S'2009-10-27'
p3718
sba(iyelp_data_provider
YelpReview
p3719
(dp3720
g14
S'5.0'
p3721
sg16
S'2010-03-01'
p3722
sba(iyelp_data_provider
YelpReview
p3723
(dp3724
g14
S'2.0'
p3725
sg16
S'2010-03-11'
p3726
sba(iyelp_data_provider
YelpReview
p3727
(dp3728
g14
S'4.0'
p3729
sg16
S'2010-06-01'
p3730
sba(iyelp_data_provider
YelpReview
p3731
(dp3732
g14
S'4.0'
p3733
sg16
S'2010-06-29'
p3734
sba(iyelp_data_provider
YelpReview
p3735
(dp3736
g14
S'3.0'
p3737
sg16
S'2010-09-25'
p3738
sba(iyelp_data_provider
YelpReview
p3739
(dp3740
g14
S'5.0'
p3741
sg16
S'2010-10-13'
p3742
sba(iyelp_data_provider
YelpReview
p3743
(dp3744
g14
S'4.0'
p3745
sg16
S'2011-03-05'
p3746
sba(iyelp_data_provider
YelpReview
p3747
(dp3748
g14
S'5.0'
p3749
sg16
S'2011-01-24'
p3750
sba(iyelp_data_provider
YelpReview
p3751
(dp3752
g14
S'5.0'
p3753
sg16
S'2008-02-04'
p3754
sba(iyelp_data_provider
YelpReview
p3755
(dp3756
g14
S'4.0'
p3757
sg16
S'2008-09-30'
p3758
sba(iyelp_data_provider
YelpReview
p3759
(dp3760
g14
S'3.0'
p3761
sg16
S'2011-11-20'
p3762
sba(iyelp_data_provider
YelpReview
p3763
(dp3764
g14
S'5.0'
p3765
sg16
S'2009-07-16'
p3766
sba(iyelp_data_provider
YelpReview
p3767
(dp3768
g14
S'4.0'
p3769
sg16
S'2009-07-30'
p3770
sba(iyelp_data_provider
YelpReview
p3771
(dp3772
g14
S'4.0'
p3773
sg16
S'2009-11-27'
p3774
sba(iyelp_data_provider
YelpReview
p3775
(dp3776
g14
S'5.0'
p3777
sg16
S'2008-03-26'
p3778
sba(iyelp_data_provider
YelpReview
p3779
(dp3780
g14
S'5.0'
p3781
sg16
S'2009-08-26'
p3782
sba(iyelp_data_provider
YelpReview
p3783
(dp3784
g14
S'5.0'
p3785
sg16
S'2009-10-09'
p3786
sba(iyelp_data_provider
YelpReview
p3787
(dp3788
g14
S'4.0'
p3789
sg16
S'2009-11-27'
p3790
sba(iyelp_data_provider
YelpReview
p3791
(dp3792
g14
S'4.0'
p3793
sg16
S'2010-01-09'
p3794
sba(iyelp_data_provider
YelpReview
p3795
(dp3796
g14
S'4.0'
p3797
sg16
S'2010-06-08'
p3798
sba(iyelp_data_provider
YelpReview
p3799
(dp3800
g14
S'4.0'
p3801
sg16
S'2011-01-21'
p3802
sba(iyelp_data_provider
YelpReview
p3803
(dp3804
g14
S'4.0'
p3805
sg16
S'2009-07-01'
p3806
sba(iyelp_data_provider
YelpReview
p3807
(dp3808
g14
S'4.0'
p3809
sg16
S'2009-12-03'
p3810
sba(iyelp_data_provider
YelpReview
p3811
(dp3812
g14
S'5.0'
p3813
sg16
S'2009-12-17'
p3814
sba(iyelp_data_provider
YelpReview
p3815
(dp3816
g14
S'4.0'
p3817
sg16
S'2009-12-30'
p3818
sba(iyelp_data_provider
YelpReview
p3819
(dp3820
g14
S'4.0'
p3821
sg16
S'2011-01-09'
p3822
sba(iyelp_data_provider
YelpReview
p3823
(dp3824
g14
S'4.0'
p3825
sg16
S'2010-01-20'
p3826
sba(iyelp_data_provider
YelpReview
p3827
(dp3828
g14
S'5.0'
p3829
sg16
S'2010-02-20'
p3830
sba(iyelp_data_provider
YelpReview
p3831
(dp3832
g14
S'4.0'
p3833
sg16
S'2009-01-11'
p3834
sba(iyelp_data_provider
YelpReview
p3835
(dp3836
g14
S'5.0'
p3837
sg16
S'2009-03-06'
p3838
sba(iyelp_data_provider
YelpReview
p3839
(dp3840
g14
S'4.0'
p3841
sg16
S'2009-07-25'
p3842
sba(iyelp_data_provider
YelpReview
p3843
(dp3844
g14
S'4.0'
p3845
sg16
S'2010-06-11'
p3846
sba(iyelp_data_provider
YelpReview
p3847
(dp3848
g14
S'4.0'
p3849
sg16
S'2010-12-23'
p3850
sba(iyelp_data_provider
YelpReview
p3851
(dp3852
g14
S'5.0'
p3853
sg16
S'2011-12-17'
p3854
sba(iyelp_data_provider
YelpReview
p3855
(dp3856
g14
S'4.0'
p3857
sg16
S'2008-01-29'
p3858
sba(iyelp_data_provider
YelpReview
p3859
(dp3860
g14
S'4.0'
p3861
sg16
S'2008-12-05'
p3862
sba(iyelp_data_provider
YelpReview
p3863
(dp3864
g14
S'5.0'
p3865
sg16
S'2009-02-27'
p3866
sba(iyelp_data_provider
YelpReview
p3867
(dp3868
g14
S'5.0'
p3869
sg16
S'2009-03-01'
p3870
sba(iyelp_data_provider
YelpReview
p3871
(dp3872
g14
S'4.0'
p3873
sg16
S'2009-05-09'
p3874
sba(iyelp_data_provider
YelpReview
p3875
(dp3876
g14
S'5.0'
p3877
sg16
S'2009-07-13'
p3878
sba(iyelp_data_provider
YelpReview
p3879
(dp3880
g14
S'5.0'
p3881
sg16
S'2009-07-22'
p3882
sba(iyelp_data_provider
YelpReview
p3883
(dp3884
g14
S'5.0'
p3885
sg16
S'2010-03-24'
p3886
sba(iyelp_data_provider
YelpReview
p3887
(dp3888
g14
S'4.0'
p3889
sg16
S'2010-08-02'
p3890
sba(iyelp_data_provider
YelpReview
p3891
(dp3892
g14
S'2.0'
p3893
sg16
S'2011-11-02'
p3894
sba(iyelp_data_provider
YelpReview
p3895
(dp3896
g14
S'4.0'
p3897
sg16
S'2011-10-25'
p3898
sba(iyelp_data_provider
YelpReview
p3899
(dp3900
g14
S'5.0'
p3901
sg16
S'2011-01-23'
p3902
sba(iyelp_data_provider
YelpReview
p3903
(dp3904
g14
S'1.0'
p3905
sg16
S'2008-06-27'
p3906
sba(iyelp_data_provider
YelpReview
p3907
(dp3908
g14
S'4.0'
p3909
sg16
S'2008-07-28'
p3910
sba(iyelp_data_provider
YelpReview
p3911
(dp3912
g14
S'4.0'
p3913
sg16
S'2008-08-21'
p3914
sba(iyelp_data_provider
YelpReview
p3915
(dp3916
g14
S'5.0'
p3917
sg16
S'2010-03-05'
p3918
sba(iyelp_data_provider
YelpReview
p3919
(dp3920
g14
S'5.0'
p3921
sg16
S'2010-11-01'
p3922
sba(iyelp_data_provider
YelpReview
p3923
(dp3924
g14
S'4.0'
p3925
sg16
S'2011-05-20'
p3926
sba(iyelp_data_provider
YelpReview
p3927
(dp3928
g14
S'5.0'
p3929
sg16
S'2010-07-19'
p3930
sba(iyelp_data_provider
YelpReview
p3931
(dp3932
g14
S'3.0'
p3933
sg16
S'2008-08-23'
p3934
sba(iyelp_data_provider
YelpReview
p3935
(dp3936
g14
S'4.0'
p3937
sg16
S'2009-11-14'
p3938
sba(iyelp_data_provider
YelpReview
p3939
(dp3940
g14
S'4.0'
p3941
sg16
S'2006-03-26'
p3942
sba(iyelp_data_provider
YelpReview
p3943
(dp3944
g14
S'5.0'
p3945
sg16
S'2011-02-13'
p3946
sba(iyelp_data_provider
YelpReview
p3947
(dp3948
g14
S'5.0'
p3949
sg16
S'2007-09-06'
p3950
sba(iyelp_data_provider
YelpReview
p3951
(dp3952
g14
S'4.0'
p3953
sg16
S'2008-08-28'
p3954
sba(iyelp_data_provider
YelpReview
p3955
(dp3956
g14
S'5.0'
p3957
sg16
S'2012-01-17'
p3958
sba(iyelp_data_provider
YelpReview
p3959
(dp3960
g14
S'5.0'
p3961
sg16
S'2009-04-07'
p3962
sba(iyelp_data_provider
YelpReview
p3963
(dp3964
g14
S'4.0'
p3965
sg16
S'2008-11-09'
p3966
sba(iyelp_data_provider
YelpReview
p3967
(dp3968
g14
S'5.0'
p3969
sg16
S'2005-12-27'
p3970
sba(iyelp_data_provider
YelpReview
p3971
(dp3972
g14
S'4.0'
p3973
sg16
S'2008-03-20'
p3974
sba(iyelp_data_provider
YelpReview
p3975
(dp3976
g14
S'5.0'
p3977
sg16
S'2009-03-22'
p3978
sba(iyelp_data_provider
YelpReview
p3979
(dp3980
g14
S'4.0'
p3981
sg16
S'2010-06-09'
p3982
sba(iyelp_data_provider
YelpReview
p3983
(dp3984
g14
S'4.0'
p3985
sg16
S'2009-05-19'
p3986
sba(iyelp_data_provider
YelpReview
p3987
(dp3988
g14
S'3.0'
p3989
sg16
S'2009-12-09'
p3990
sba(iyelp_data_provider
YelpReview
p3991
(dp3992
g14
S'4.0'
p3993
sg16
S'2010-08-04'
p3994
sbasg1850
I01
sg1851
F40.760042
sg2051
S'$'
p3995
sg1852
V4nohlTsGHEDdpwYkRTt-fA
p3996
sba(iyelp_data_provider
YelpBusiness
p3997
(dp3998
g3
I26
sg4
VBriciola
p3999
sg6
Vhttp://www.yelp.com/biz/briciola-new-york
p4000
sg8
F4.0
sg9
F-73.9880919456482
sg10
(lp4001
(iyelp_data_provider
YelpReview
p4002
(dp4003
g14
S'4.0'
p4004
sg16
S'2012-11-14'
p4005
sba(iyelp_data_provider
YelpReview
p4006
(dp4007
g14
S'5.0'
p4008
sg16
S'2012-11-23'
p4009
sba(iyelp_data_provider
YelpReview
p4010
(dp4011
g14
S'3.0'
p4012
sg16
S'2012-11-17'
p4013
sba(iyelp_data_provider
YelpReview
p4014
(dp4015
g14
S'4.0'
p4016
sg16
S'2012-11-09'
p4017
sba(iyelp_data_provider
YelpReview
p4018
(dp4019
g14
S'1.0'
p4020
sg16
S'2012-10-18'
p4021
sba(iyelp_data_provider
YelpReview
p4022
(dp4023
g14
S'5.0'
p4024
sg16
S'2012-11-10'
p4025
sba(iyelp_data_provider
YelpReview
p4026
(dp4027
g14
S'4.0'
p4028
sg16
S'2012-08-23'
p4029
sba(iyelp_data_provider
YelpReview
p4030
(dp4031
g14
S'5.0'
p4032
sg16
S'2012-08-01'
p4033
sba(iyelp_data_provider
YelpReview
p4034
(dp4035
g14
S'5.0'
p4036
sg16
S'2012-07-17'
p4037
sba(iyelp_data_provider
YelpReview
p4038
(dp4039
g14
S'4.0'
p4040
sg16
S'2012-12-04'
p4041
sba(iyelp_data_provider
YelpReview
p4042
(dp4043
g14
S'4.0'
p4044
sg16
S'2012-10-01'
p4045
sba(iyelp_data_provider
YelpReview
p4046
(dp4047
g14
S'5.0'
p4048
sg16
S'2012-10-07'
p4049
sba(iyelp_data_provider
YelpReview
p4050
(dp4051
g14
S'5.0'
p4052
sg16
S'2012-10-08'
p4053
sba(iyelp_data_provider
YelpReview
p4054
(dp4055
g14
S'5.0'
p4056
sg16
S'2012-06-19'
p4057
sba(iyelp_data_provider
YelpReview
p4058
(dp4059
g14
S'5.0'
p4060
sg16
S'2012-05-01'
p4061
sba(iyelp_data_provider
YelpReview
p4062
(dp4063
g14
S'4.0'
p4064
sg16
S'2012-06-11'
p4065
sba(iyelp_data_provider
YelpReview
p4066
(dp4067
g14
S'4.0'
p4068
sg16
S'2012-10-24'
p4069
sba(iyelp_data_provider
YelpReview
p4070
(dp4071
g14
S'1.0'
p4072
sg16
S'2012-07-16'
p4073
sba(iyelp_data_provider
YelpReview
p4074
(dp4075
g14
S'2.0'
p4076
sg16
S'2012-04-03'
p4077
sba(iyelp_data_provider
YelpReview
p4078
(dp4079
g14
S'5.0'
p4080
sg16
S'2012-09-28'
p4081
sba(iyelp_data_provider
YelpReview
p4082
(dp4083
g14
S'4.0'
p4084
sg16
S'2012-04-04'
p4085
sba(iyelp_data_provider
YelpReview
p4086
(dp4087
g14
S'5.0'
p4088
sg16
S'2012-08-27'
p4089
sba(iyelp_data_provider
YelpReview
p4090
(dp4091
g14
S'5.0'
p4092
sg16
S'2012-09-06'
p4093
sba(iyelp_data_provider
YelpReview
p4094
(dp4095
g14
S'5.0'
p4096
sg16
S'2012-06-21'
p4097
sba(iyelp_data_provider
YelpReview
p4098
(dp4099
g14
S'4.0'
p4100
sg16
S'2012-06-13'
p4101
sba(iyelp_data_provider
YelpReview
p4102
(dp4103
g14
S'4.0'
p4104
sg16
S'2012-06-24'
p4105
sbasg1850
I01
sg1851
F40.7637997047278
sg1852
VMOwB9YYd-Ko6nVgSB-ltQw
p4106
sba(iyelp_data_provider
YelpBusiness
p4107
(dp4108
g3
I38
sg4
VDeacon Brodie's
p4109
sg6
Vhttp://www.yelp.com/biz/deacon-brodies-new-york-2
p4110
sg8
F4.0
sg9
F-73.9903717
sg10
(lp4111
(iyelp_data_provider
YelpReview
p4112
(dp4113
g14
S'4.0'
p4114
sg16
S'2012-10-23'
p4115
sba(iyelp_data_provider
YelpReview
p4116
(dp4117
g14
S'5.0'
p4118
sg16
S'2012-02-17'
p4119
sba(iyelp_data_provider
YelpReview
p4120
(dp4121
g14
S'3.0'
p4122
sg16
S'2012-01-03'
p4123
sba(iyelp_data_provider
YelpReview
p4124
(dp4125
g14
S'5.0'
p4126
sg16
S'2011-09-06'
p4127
sba(iyelp_data_provider
YelpReview
p4128
(dp4129
g14
S'2.0'
p4130
sg16
S'2012-05-07'
p4131
sba(iyelp_data_provider
YelpReview
p4132
(dp4133
g14
S'4.0'
p4134
sg16
S'2011-11-10'
p4135
sba(iyelp_data_provider
YelpReview
p4136
(dp4137
g14
S'4.0'
p4138
sg16
S'2010-12-16'
p4139
sba(iyelp_data_provider
YelpReview
p4140
(dp4141
g14
S'3.0'
p4142
sg16
S'2010-10-18'
p4143
sba(iyelp_data_provider
YelpReview
p4144
(dp4145
g14
S'5.0'
p4146
sg16
S'2010-01-22'
p4147
sba(iyelp_data_provider
YelpReview
p4148
(dp4149
g14
S'5.0'
p4150
sg16
S'2011-08-20'
p4151
sba(iyelp_data_provider
YelpReview
p4152
(dp4153
g14
S'4.0'
p4154
sg16
S'2011-04-29'
p4155
sba(iyelp_data_provider
YelpReview
p4156
(dp4157
g14
S'4.0'
p4158
sg16
S'2009-12-20'
p4159
sba(iyelp_data_provider
YelpReview
p4160
(dp4161
g14
S'5.0'
p4162
sg16
S'2010-02-28'
p4163
sba(iyelp_data_provider
YelpReview
p4164
(dp4165
g14
S'4.0'
p4166
sg16
S'2007-05-29'
p4167
sba(iyelp_data_provider
YelpReview
p4168
(dp4169
g14
S'3.0'
p4170
sg16
S'2011-10-14'
p4171
sba(iyelp_data_provider
YelpReview
p4172
(dp4173
g14
S'4.0'
p4174
sg16
S'2008-02-24'
p4175
sba(iyelp_data_provider
YelpReview
p4176
(dp4177
g14
S'2.0'
p4178
sg16
S'2011-01-23'
p4179
sba(iyelp_data_provider
YelpReview
p4180
(dp4181
g14
S'4.0'
p4182
sg16
S'2011-08-24'
p4183
sba(iyelp_data_provider
YelpReview
p4184
(dp4185
g14
S'4.0'
p4186
sg16
S'2011-10-28'
p4187
sba(iyelp_data_provider
YelpReview
p4188
(dp4189
g14
S'4.0'
p4190
sg16
S'2010-02-19'
p4191
sba(iyelp_data_provider
YelpReview
p4192
(dp4193
g14
S'3.0'
p4194
sg16
S'2011-01-12'
p4195
sba(iyelp_data_provider
YelpReview
p4196
(dp4197
g14
S'3.0'
p4198
sg16
S'2008-07-07'
p4199
sba(iyelp_data_provider
YelpReview
p4200
(dp4201
g14
S'5.0'
p4202
sg16
S'2007-03-20'
p4203
sba(iyelp_data_provider
YelpReview
p4204
(dp4205
g14
S'4.0'
p4206
sg16
S'2010-02-16'
p4207
sba(iyelp_data_provider
YelpReview
p4208
(dp4209
g14
S'5.0'
p4210
sg16
S'2011-08-17'
p4211
sba(iyelp_data_provider
YelpReview
p4212
(dp4213
g14
S'4.0'
p4214
sg16
S'2010-11-08'
p4215
sba(iyelp_data_provider
YelpReview
p4216
(dp4217
g14
S'4.0'
p4218
sg16
S'2009-08-09'
p4219
sba(iyelp_data_provider
YelpReview
p4220
(dp4221
g14
S'5.0'
p4222
sg16
S'2011-01-10'
p4223
sba(iyelp_data_provider
YelpReview
p4224
(dp4225
g14
S'5.0'
p4226
sg16
S'2010-03-19'
p4227
sba(iyelp_data_provider
YelpReview
p4228
(dp4229
g14
S'3.0'
p4230
sg16
S'2010-11-01'
p4231
sba(iyelp_data_provider
YelpReview
p4232
(dp4233
g14
S'5.0'
p4234
sg16
S'2008-02-08'
p4235
sba(iyelp_data_provider
YelpReview
p4236
(dp4237
g14
S'5.0'
p4238
sg16
S'2012-01-05'
p4239
sba(iyelp_data_provider
YelpReview
p4240
(dp4241
g14
S'5.0'
p4242
sg16
S'2011-11-02'
p4243
sba(iyelp_data_provider
YelpReview
p4244
(dp4245
g14
S'4.0'
p4246
sg16
S'2011-11-22'
p4247
sba(iyelp_data_provider
YelpReview
p4248
(dp4249
g14
S'5.0'
p4250
sg16
S'2009-02-15'
p4251
sba(iyelp_data_provider
YelpReview
p4252
(dp4253
g14
S'3.0'
p4254
sg16
S'2011-07-11'
p4255
sba(iyelp_data_provider
YelpReview
p4256
(dp4257
g14
S'5.0'
p4258
sg16
S'2009-03-15'
p4259
sba(iyelp_data_provider
YelpReview
p4260
(dp4261
g14
S'4.0'
p4262
sg16
S'2010-05-15'
p4263
sbasg1850
I01
sg1851
F40.7606896
sg2051
S'$$'
p4264
sg1852
VEuoHL-sfKlSoLdeYDJZgUA
p4265
sba(iyelp_data_provider
YelpBusiness
p4266
(dp4267
g3
I413
sg4
VThe Pony Bar
p4268
sg6
Vhttp://www.yelp.com/biz/the-pony-bar-new-york
p4269
sg8
F4.5
sg9
F-73.994307
sg10
(lp4270
(iyelp_data_provider
YelpReview
p4271
(dp4272
g14
S'4.5'
p4273
sg16
S'2012-12-09'
p4274
sba(iyelp_data_provider
YelpReview
p4275
(dp4276
g14
S'5.0'
p4277
sg16
S'2012-12-07'
p4278
sba(iyelp_data_provider
YelpReview
p4279
(dp4280
g14
S'4.0'
p4281
sg16
S'2012-12-01'
p4282
sba(iyelp_data_provider
YelpReview
p4283
(dp4284
g14
S'5.0'
p4285
sg16
S'2012-11-22'
p4286
sba(iyelp_data_provider
YelpReview
p4287
(dp4288
g14
S'3.0'
p4289
sg16
S'2012-11-29'
p4290
sba(iyelp_data_provider
YelpReview
p4291
(dp4292
g14
S'5.0'
p4293
sg16
S'2012-11-14'
p4294
sba(iyelp_data_provider
YelpReview
p4295
(dp4296
g14
S'4.0'
p4297
sg16
S'2012-11-28'
p4298
sba(iyelp_data_provider
YelpReview
p4299
(dp4300
g14
S'4.0'
p4301
sg16
S'2012-11-15'
p4302
sba(iyelp_data_provider
YelpReview
p4303
(dp4304
g14
S'5.0'
p4305
sg16
S'2012-11-27'
p4306
sba(iyelp_data_provider
YelpReview
p4307
(dp4308
g14
S'5.0'
p4309
sg16
S'2012-10-31'
p4310
sba(iyelp_data_provider
YelpReview
p4311
(dp4312
g14
S'4.0'
p4313
sg16
S'2012-11-10'
p4314
sba(iyelp_data_provider
YelpReview
p4315
(dp4316
g14
S'1.0'
p4317
sg16
S'2012-10-16'
p4318
sba(iyelp_data_provider
YelpReview
p4319
(dp4320
g14
S'4.0'
p4321
sg16
S'2012-11-01'
p4322
sba(iyelp_data_provider
YelpReview
p4323
(dp4324
g14
S'5.0'
p4325
sg16
S'2012-10-07'
p4326
sba(iyelp_data_provider
YelpReview
p4327
(dp4328
g14
S'5.0'
p4329
sg16
S'2012-10-25'
p4330
sba(iyelp_data_provider
YelpReview
p4331
(dp4332
g14
S'4.0'
p4333
sg16
S'2012-11-19'
p4334
sba(iyelp_data_provider
YelpReview
p4335
(dp4336
g14
S'3.0'
p4337
sg16
S'2012-10-16'
p4338
sba(iyelp_data_provider
YelpReview
p4339
(dp4340
g14
S'5.0'
p4341
sg16
S'2012-10-16'
p4342
sba(iyelp_data_provider
YelpReview
p4343
(dp4344
g14
S'3.0'
p4345
sg16
S'2012-09-21'
p4346
sba(iyelp_data_provider
YelpReview
p4347
(dp4348
g14
S'5.0'
p4349
sg16
S'2012-09-27'
p4350
sba(iyelp_data_provider
YelpReview
p4351
(dp4352
g14
S'4.0'
p4353
sg16
S'2012-11-18'
p4354
sba(iyelp_data_provider
YelpReview
p4355
(dp4356
g14
S'5.0'
p4357
sg16
S'2012-11-17'
p4358
sba(iyelp_data_provider
YelpReview
p4359
(dp4360
g14
S'5.0'
p4361
sg16
S'2012-08-25'
p4362
sba(iyelp_data_provider
YelpReview
p4363
(dp4364
g14
S'5.0'
p4365
sg16
S'2012-10-03'
p4366
sba(iyelp_data_provider
YelpReview
p4367
(dp4368
g14
S'5.0'
p4369
sg16
S'2012-09-19'
p4370
sba(iyelp_data_provider
YelpReview
p4371
(dp4372
g14
S'4.0'
p4373
sg16
S'2012-09-18'
p4374
sba(iyelp_data_provider
YelpReview
p4375
(dp4376
g14
S'5.0'
p4377
sg16
S'2012-11-09'
p4378
sba(iyelp_data_provider
YelpReview
p4379
(dp4380
g14
S'5.0'
p4381
sg16
S'2012-11-30'
p4382
sba(iyelp_data_provider
YelpReview
p4383
(dp4384
g14
S'5.0'
p4385
sg16
S'2012-07-31'
p4386
sba(iyelp_data_provider
YelpReview
p4387
(dp4388
g14
S'5.0'
p4389
sg16
S'2012-11-04'
p4390
sba(iyelp_data_provider
YelpReview
p4391
(dp4392
g14
S'4.0'
p4393
sg16
S'2012-07-11'
p4394
sba(iyelp_data_provider
YelpReview
p4395
(dp4396
g14
S'4.0'
p4397
sg16
S'2012-07-17'
p4398
sba(iyelp_data_provider
YelpReview
p4399
(dp4400
g14
S'5.0'
p4401
sg16
S'2012-07-13'
p4402
sba(iyelp_data_provider
YelpReview
p4403
(dp4404
g14
S'5.0'
p4405
sg16
S'2012-07-24'
p4406
sba(iyelp_data_provider
YelpReview
p4407
(dp4408
g14
S'5.0'
p4409
sg16
S'2012-10-19'
p4410
sba(iyelp_data_provider
YelpReview
p4411
(dp4412
g14
S'4.0'
p4413
sg16
S'2012-06-29'
p4414
sba(iyelp_data_provider
YelpReview
p4415
(dp4416
g14
S'5.0'
p4417
sg16
S'2012-07-23'
p4418
sba(iyelp_data_provider
YelpReview
p4419
(dp4420
g14
S'4.0'
p4421
sg16
S'2012-06-06'
p4422
sba(iyelp_data_provider
YelpReview
p4423
(dp4424
g14
S'5.0'
p4425
sg16
S'2012-05-23'
p4426
sba(iyelp_data_provider
YelpReview
p4427
(dp4428
g14
S'5.0'
p4429
sg16
S'2012-10-13'
p4430
sba(iyelp_data_provider
YelpReview
p4431
(dp4432
g14
S'4.5'
p4433
sg16
S'2012-05-17'
p4434
sba(iyelp_data_provider
YelpReview
p4435
(dp4436
g14
S'5.0'
p4437
sg16
S'2012-11-18'
p4438
sba(iyelp_data_provider
YelpReview
p4439
(dp4440
g14
S'2.0'
p4441
sg16
S'2012-10-09'
p4442
sba(iyelp_data_provider
YelpReview
p4443
(dp4444
g14
S'4.0'
p4445
sg16
S'2012-06-06'
p4446
sba(iyelp_data_provider
YelpReview
p4447
(dp4448
g14
S'4.0'
p4449
sg16
S'2012-09-18'
p4450
sba(iyelp_data_provider
YelpReview
p4451
(dp4452
g14
S'4.0'
p4453
sg16
S'2012-11-15'
p4454
sba(iyelp_data_provider
YelpReview
p4455
(dp4456
g14
S'4.0'
p4457
sg16
S'2012-04-05'
p4458
sba(iyelp_data_provider
YelpReview
p4459
(dp4460
g14
S'5.0'
p4461
sg16
S'2012-06-07'
p4462
sba(iyelp_data_provider
YelpReview
p4463
(dp4464
g14
S'3.0'
p4465
sg16
S'2012-09-27'
p4466
sba(iyelp_data_provider
YelpReview
p4467
(dp4468
g14
S'4.0'
p4469
sg16
S'2012-04-18'
p4470
sba(iyelp_data_provider
YelpReview
p4471
(dp4472
g14
S'4.0'
p4473
sg16
S'2012-03-26'
p4474
sba(iyelp_data_provider
YelpReview
p4475
(dp4476
g14
S'4.0'
p4477
sg16
S'2012-08-27'
p4478
sba(iyelp_data_provider
YelpReview
p4479
(dp4480
g14
S'4.0'
p4481
sg16
S'2012-06-04'
p4482
sba(iyelp_data_provider
YelpReview
p4483
(dp4484
g14
S'4.0'
p4485
sg16
S'2012-08-07'
p4486
sba(iyelp_data_provider
YelpReview
p4487
(dp4488
g14
S'4.0'
p4489
sg16
S'2012-03-15'
p4490
sba(iyelp_data_provider
YelpReview
p4491
(dp4492
g14
S'4.0'
p4493
sg16
S'2012-04-18'
p4494
sba(iyelp_data_provider
YelpReview
p4495
(dp4496
g14
S'5.0'
p4497
sg16
S'2012-06-11'
p4498
sba(iyelp_data_provider
YelpReview
p4499
(dp4500
g14
S'4.0'
p4501
sg16
S'2012-05-21'
p4502
sba(iyelp_data_provider
YelpReview
p4503
(dp4504
g14
S'4.0'
p4505
sg16
S'2012-04-26'
p4506
sba(iyelp_data_provider
YelpReview
p4507
(dp4508
g14
S'5.0'
p4509
sg16
S'2012-02-22'
p4510
sba(iyelp_data_provider
YelpReview
p4511
(dp4512
g14
S'5.0'
p4513
sg16
S'2012-09-12'
p4514
sba(iyelp_data_provider
YelpReview
p4515
(dp4516
g14
S'4.0'
p4517
sg16
S'2012-03-29'
p4518
sba(iyelp_data_provider
YelpReview
p4519
(dp4520
g14
S'5.0'
p4521
sg16
S'2012-03-25'
p4522
sba(iyelp_data_provider
YelpReview
p4523
(dp4524
g14
S'4.0'
p4525
sg16
S'2012-08-23'
p4526
sba(iyelp_data_provider
YelpReview
p4527
(dp4528
g14
S'4.0'
p4529
sg16
S'2012-02-14'
p4530
sba(iyelp_data_provider
YelpReview
p4531
(dp4532
g14
S'4.0'
p4533
sg16
S'2012-03-22'
p4534
sba(iyelp_data_provider
YelpReview
p4535
(dp4536
g14
S'5.0'
p4537
sg16
S'2012-04-10'
p4538
sba(iyelp_data_provider
YelpReview
p4539
(dp4540
g14
S'3.0'
p4541
sg16
S'2012-02-03'
p4542
sba(iyelp_data_provider
YelpReview
p4543
(dp4544
g14
S'5.0'
p4545
sg16
S'2012-04-06'
p4546
sba(iyelp_data_provider
YelpReview
p4547
(dp4548
g14
S'4.0'
p4549
sg16
S'2012-02-27'
p4550
sba(iyelp_data_provider
YelpReview
p4551
(dp4552
g14
S'3.0'
p4553
sg16
S'2012-01-29'
p4554
sba(iyelp_data_provider
YelpReview
p4555
(dp4556
g14
S'4.0'
p4557
sg16
S'2012-01-21'
p4558
sba(iyelp_data_provider
YelpReview
p4559
(dp4560
g14
S'5.0'
p4561
sg16
S'2012-02-15'
p4562
sba(iyelp_data_provider
YelpReview
p4563
(dp4564
g14
S'5.0'
p4565
sg16
S'2012-09-17'
p4566
sba(iyelp_data_provider
YelpReview
p4567
(dp4568
g14
S'5.0'
p4569
sg16
S'2012-01-17'
p4570
sba(iyelp_data_provider
YelpReview
p4571
(dp4572
g14
S'5.0'
p4573
sg16
S'2012-08-06'
p4574
sba(iyelp_data_provider
YelpReview
p4575
(dp4576
g14
S'4.0'
p4577
sg16
S'2012-08-19'
p4578
sba(iyelp_data_provider
YelpReview
p4579
(dp4580
g14
S'4.0'
p4581
sg16
S'2012-07-31'
p4582
sba(iyelp_data_provider
YelpReview
p4583
(dp4584
g14
S'4.0'
p4585
sg16
S'2012-04-12'
p4586
sba(iyelp_data_provider
YelpReview
p4587
(dp4588
g14
S'5.0'
p4589
sg16
S'2012-03-02'
p4590
sba(iyelp_data_provider
YelpReview
p4591
(dp4592
g14
S'4.5'
p4593
sg16
S'2012-01-16'
p4594
sba(iyelp_data_provider
YelpReview
p4595
(dp4596
g14
S'5.0'
p4597
sg16
S'2012-08-21'
p4598
sba(iyelp_data_provider
YelpReview
p4599
(dp4600
g14
S'4.0'
p4601
sg16
S'2012-07-17'
p4602
sba(iyelp_data_provider
YelpReview
p4603
(dp4604
g14
S'4.0'
p4605
sg16
S'2012-06-27'
p4606
sba(iyelp_data_provider
YelpReview
p4607
(dp4608
g14
S'5.0'
p4609
sg16
S'2011-11-17'
p4610
sba(iyelp_data_provider
YelpReview
p4611
(dp4612
g14
S'3.0'
p4613
sg16
S'2012-07-30'
p4614
sba(iyelp_data_provider
YelpReview
p4615
(dp4616
g14
S'4.0'
p4617
sg16
S'2012-02-09'
p4618
sba(iyelp_data_provider
YelpReview
p4619
(dp4620
g14
S'3.0'
p4621
sg16
S'2012-02-06'
p4622
sba(iyelp_data_provider
YelpReview
p4623
(dp4624
g14
S'4.0'
p4625
sg16
S'2012-02-05'
p4626
sba(iyelp_data_provider
YelpReview
p4627
(dp4628
g14
S'4.0'
p4629
sg16
S'2011-10-28'
p4630
sba(iyelp_data_provider
YelpReview
p4631
(dp4632
g14
S'5.0'
p4633
sg16
S'2012-07-08'
p4634
sba(iyelp_data_provider
YelpReview
p4635
(dp4636
g14
S'5.0'
p4637
sg16
S'2012-01-27'
p4638
sba(iyelp_data_provider
YelpReview
p4639
(dp4640
g14
S'4.0'
p4641
sg16
S'2011-10-16'
p4642
sba(iyelp_data_provider
YelpReview
p4643
(dp4644
g14
S'5.0'
p4645
sg16
S'2011-11-22'
p4646
sba(iyelp_data_provider
YelpReview
p4647
(dp4648
g14
S'5.0'
p4649
sg16
S'2011-12-27'
p4650
sba(iyelp_data_provider
YelpReview
p4651
(dp4652
g14
S'5.0'
p4653
sg16
S'2012-06-22'
p4654
sba(iyelp_data_provider
YelpReview
p4655
(dp4656
g14
S'5.0'
p4657
sg16
S'2012-08-01'
p4658
sba(iyelp_data_provider
YelpReview
p4659
(dp4660
g14
S'5.0'
p4661
sg16
S'2011-10-06'
p4662
sba(iyelp_data_provider
YelpReview
p4663
(dp4664
g14
S'4.0'
p4665
sg16
S'2012-02-03'
p4666
sba(iyelp_data_provider
YelpReview
p4667
(dp4668
g14
S'4.0'
p4669
sg16
S'2012-05-10'
p4670
sba(iyelp_data_provider
YelpReview
p4671
(dp4672
g14
S'4.0'
p4673
sg16
S'2011-09-05'
p4674
sba(iyelp_data_provider
YelpReview
p4675
(dp4676
g14
S'5.0'
p4677
sg16
S'2012-04-25'
p4678
sba(iyelp_data_provider
YelpReview
p4679
(dp4680
g14
S'4.0'
p4681
sg16
S'2012-05-25'
p4682
sba(iyelp_data_provider
YelpReview
p4683
(dp4684
g14
S'3.0'
p4685
sg16
S'2012-06-18'
p4686
sba(iyelp_data_provider
YelpReview
p4687
(dp4688
g14
S'5.0'
p4689
sg16
S'2012-01-26'
p4690
sba(iyelp_data_provider
YelpReview
p4691
(dp4692
g14
S'4.0'
p4693
sg16
S'2011-08-31'
p4694
sba(iyelp_data_provider
YelpReview
p4695
(dp4696
g14
S'5.0'
p4697
sg16
S'2011-12-30'
p4698
sba(iyelp_data_provider
YelpReview
p4699
(dp4700
g14
S'5.0'
p4701
sg16
S'2011-12-28'
p4702
sba(iyelp_data_provider
YelpReview
p4703
(dp4704
g14
S'5.0'
p4705
sg16
S'2011-11-17'
p4706
sba(iyelp_data_provider
YelpReview
p4707
(dp4708
g14
S'5.0'
p4709
sg16
S'2012-08-05'
p4710
sba(iyelp_data_provider
YelpReview
p4711
(dp4712
g14
S'4.0'
p4713
sg16
S'2012-07-29'
p4714
sba(iyelp_data_provider
YelpReview
p4715
(dp4716
g14
S'4.0'
p4717
sg16
S'2012-02-07'
p4718
sba(iyelp_data_provider
YelpReview
p4719
(dp4720
g14
S'5.0'
p4721
sg16
S'2012-02-19'
p4722
sba(iyelp_data_provider
YelpReview
p4723
(dp4724
g14
S'5.0'
p4725
sg16
S'2011-10-19'
p4726
sba(iyelp_data_provider
YelpReview
p4727
(dp4728
g14
S'4.0'
p4729
sg16
S'2011-07-09'
p4730
sba(iyelp_data_provider
YelpReview
p4731
(dp4732
g14
S'5.0'
p4733
sg16
S'2011-08-28'
p4734
sba(iyelp_data_provider
YelpReview
p4735
(dp4736
g14
S'5.0'
p4737
sg16
S'2012-02-06'
p4738
sba(iyelp_data_provider
YelpReview
p4739
(dp4740
g14
S'4.0'
p4741
sg16
S'2012-07-02'
p4742
sba(iyelp_data_provider
YelpReview
p4743
(dp4744
g14
S'5.0'
p4745
sg16
S'2011-06-30'
p4746
sba(iyelp_data_provider
YelpReview
p4747
(dp4748
g14
S'5.0'
p4749
sg16
S'2012-03-23'
p4750
sba(iyelp_data_provider
YelpReview
p4751
(dp4752
g14
S'4.5'
p4753
sg16
S'2012-07-08'
p4754
sba(iyelp_data_provider
YelpReview
p4755
(dp4756
g14
S'5.0'
p4757
sg16
S'2011-09-14'
p4758
sba(iyelp_data_provider
YelpReview
p4759
(dp4760
g14
S'5.0'
p4761
sg16
S'2011-10-01'
p4762
sba(iyelp_data_provider
YelpReview
p4763
(dp4764
g14
S'4.0'
p4765
sg16
S'2011-08-17'
p4766
sba(iyelp_data_provider
YelpReview
p4767
(dp4768
g14
S'5.0'
p4769
sg16
S'2011-09-11'
p4770
sba(iyelp_data_provider
YelpReview
p4771
(dp4772
g14
S'5.0'
p4773
sg16
S'2011-08-29'
p4774
sba(iyelp_data_provider
YelpReview
p4775
(dp4776
g14
S'4.0'
p4777
sg16
S'2012-06-12'
p4778
sba(iyelp_data_provider
YelpReview
p4779
(dp4780
g14
S'3.0'
p4781
sg16
S'2012-01-22'
p4782
sba(iyelp_data_provider
YelpReview
p4783
(dp4784
g14
S'4.0'
p4785
sg16
S'2012-07-10'
p4786
sba(iyelp_data_provider
YelpReview
p4787
(dp4788
g14
S'3.0'
p4789
sg16
S'2011-05-11'
p4790
sba(iyelp_data_provider
YelpReview
p4791
(dp4792
g14
S'5.0'
p4793
sg16
S'2012-07-09'
p4794
sba(iyelp_data_provider
YelpReview
p4795
(dp4796
g14
S'5.0'
p4797
sg16
S'2011-08-04'
p4798
sba(iyelp_data_provider
YelpReview
p4799
(dp4800
g14
S'4.0'
p4801
sg16
S'2011-12-28'
p4802
sba(iyelp_data_provider
YelpReview
p4803
(dp4804
g14
S'5.0'
p4805
sg16
S'2012-03-07'
p4806
sba(iyelp_data_provider
YelpReview
p4807
(dp4808
g14
S'5.0'
p4809
sg16
S'2011-07-07'
p4810
sba(iyelp_data_provider
YelpReview
p4811
(dp4812
g14
S'5.0'
p4813
sg16
S'2011-05-23'
p4814
sba(iyelp_data_provider
YelpReview
p4815
(dp4816
g14
S'5.0'
p4817
sg16
S'2012-06-28'
p4818
sba(iyelp_data_provider
YelpReview
p4819
(dp4820
g14
S'1.0'
p4821
sg16
S'2011-11-17'
p4822
sba(iyelp_data_provider
YelpReview
p4823
(dp4824
g14
S'5.0'
p4825
sg16
S'2011-04-28'
p4826
sba(iyelp_data_provider
YelpReview
p4827
(dp4828
g14
S'5.0'
p4829
sg16
S'2012-04-11'
p4830
sba(iyelp_data_provider
YelpReview
p4831
(dp4832
g14
S'4.0'
p4833
sg16
S'2011-07-06'
p4834
sba(iyelp_data_provider
YelpReview
p4835
(dp4836
g14
S'4.0'
p4837
sg16
S'2011-11-03'
p4838
sba(iyelp_data_provider
YelpReview
p4839
(dp4840
g14
S'5.0'
p4841
sg16
S'2011-06-21'
p4842
sba(iyelp_data_provider
YelpReview
p4843
(dp4844
g14
S'5.0'
p4845
sg16
S'2012-02-28'
p4846
sba(iyelp_data_provider
YelpReview
p4847
(dp4848
g14
S'4.0'
p4849
sg16
S'2012-04-14'
p4850
sba(iyelp_data_provider
YelpReview
p4851
(dp4852
g14
S'4.0'
p4853
sg16
S'2011-08-13'
p4854
sba(iyelp_data_provider
YelpReview
p4855
(dp4856
g14
S'4.0'
p4857
sg16
S'2011-04-07'
p4858
sba(iyelp_data_provider
YelpReview
p4859
(dp4860
g14
S'4.0'
p4861
sg16
S'2012-05-27'
p4862
sba(iyelp_data_provider
YelpReview
p4863
(dp4864
g14
S'5.0'
p4865
sg16
S'2012-06-10'
p4866
sba(iyelp_data_provider
YelpReview
p4867
(dp4868
g14
S'4.0'
p4869
sg16
S'2012-06-09'
p4870
sba(iyelp_data_provider
YelpReview
p4871
(dp4872
g14
S'4.0'
p4873
sg16
S'2011-02-27'
p4874
sba(iyelp_data_provider
YelpReview
p4875
(dp4876
g14
S'5.0'
p4877
sg16
S'2012-04-02'
p4878
sba(iyelp_data_provider
YelpReview
p4879
(dp4880
g14
S'4.0'
p4881
sg16
S'2011-01-31'
p4882
sba(iyelp_data_provider
YelpReview
p4883
(dp4884
g14
S'5.0'
p4885
sg16
S'2012-03-02'
p4886
sba(iyelp_data_provider
YelpReview
p4887
(dp4888
g14
S'4.0'
p4889
sg16
S'2011-07-02'
p4890
sba(iyelp_data_provider
YelpReview
p4891
(dp4892
g14
S'5.0'
p4893
sg16
S'2012-07-11'
p4894
sba(iyelp_data_provider
YelpReview
p4895
(dp4896
g14
S'2.0'
p4897
sg16
S'2011-06-20'
p4898
sba(iyelp_data_provider
YelpReview
p4899
(dp4900
g14
S'4.0'
p4901
sg16
S'2011-01-21'
p4902
sba(iyelp_data_provider
YelpReview
p4903
(dp4904
g14
S'5.0'
p4905
sg16
S'2011-01-30'
p4906
sba(iyelp_data_provider
YelpReview
p4907
(dp4908
g14
S'5.0'
p4909
sg16
S'2010-08-18'
p4910
sba(iyelp_data_provider
YelpReview
p4911
(dp4912
g14
S'4.5'
p4913
sg16
S'2010-10-18'
p4914
sba(iyelp_data_provider
YelpReview
p4915
(dp4916
g14
S'4.0'
p4917
sg16
S'2010-10-14'
p4918
sba(iyelp_data_provider
YelpReview
p4919
(dp4920
g14
S'4.0'
p4921
sg16
S'2010-04-27'
p4922
sba(iyelp_data_provider
YelpReview
p4923
(dp4924
g14
S'4.0'
p4925
sg16
S'2009-09-22'
p4926
sba(iyelp_data_provider
YelpReview
p4927
(dp4928
g14
S'4.0'
p4929
sg16
S'2009-12-13'
p4930
sba(iyelp_data_provider
YelpReview
p4931
(dp4932
g14
S'5.0'
p4933
sg16
S'2009-12-10'
p4934
sba(iyelp_data_provider
YelpReview
p4935
(dp4936
g14
S'4.0'
p4937
sg16
S'2010-06-16'
p4938
sba(iyelp_data_provider
YelpReview
p4939
(dp4940
g14
S'4.0'
p4941
sg16
S'2009-04-18'
p4942
sba(iyelp_data_provider
YelpReview
p4943
(dp4944
g14
S'3.0'
p4945
sg16
S'2011-05-29'
p4946
sba(iyelp_data_provider
YelpReview
p4947
(dp4948
g14
S'5.0'
p4949
sg16
S'2010-02-23'
p4950
sba(iyelp_data_provider
YelpReview
p4951
(dp4952
g14
S'5.0'
p4953
sg16
S'2010-11-13'
p4954
sba(iyelp_data_provider
YelpReview
p4955
(dp4956
g14
S'4.0'
p4957
sg16
S'2009-05-28'
p4958
sba(iyelp_data_provider
YelpReview
p4959
(dp4960
g14
S'4.0'
p4961
sg16
S'2009-11-04'
p4962
sba(iyelp_data_provider
YelpReview
p4963
(dp4964
g14
S'4.0'
p4965
sg16
S'2009-11-13'
p4966
sba(iyelp_data_provider
YelpReview
p4967
(dp4968
g14
S'5.0'
p4969
sg16
S'2011-04-03'
p4970
sba(iyelp_data_provider
YelpReview
p4971
(dp4972
g14
S'4.0'
p4973
sg16
S'2011-02-26'
p4974
sba(iyelp_data_provider
YelpReview
p4975
(dp4976
g14
S'4.0'
p4977
sg16
S'2011-02-07'
p4978
sba(iyelp_data_provider
YelpReview
p4979
(dp4980
g14
S'4.0'
p4981
sg16
S'2011-08-20'
p4982
sba(iyelp_data_provider
YelpReview
p4983
(dp4984
g14
S'5.0'
p4985
sg16
S'2009-08-26'
p4986
sba(iyelp_data_provider
YelpReview
p4987
(dp4988
g14
S'4.0'
p4989
sg16
S'2010-04-30'
p4990
sba(iyelp_data_provider
YelpReview
p4991
(dp4992
g14
S'5.0'
p4993
sg16
S'2010-10-10'
p4994
sba(iyelp_data_provider
YelpReview
p4995
(dp4996
g14
S'5.0'
p4997
sg16
S'2010-02-04'
p4998
sba(iyelp_data_provider
YelpReview
p4999
(dp5000
g14
S'3.0'
p5001
sg16
S'2010-03-11'
p5002
sba(iyelp_data_provider
YelpReview
p5003
(dp5004
g14
S'3.0'
p5005
sg16
S'2012-05-11'
p5006
sba(iyelp_data_provider
YelpReview
p5007
(dp5008
g14
S'5.0'
p5009
sg16
S'2011-04-25'
p5010
sba(iyelp_data_provider
YelpReview
p5011
(dp5012
g14
S'4.0'
p5013
sg16
S'2010-09-26'
p5014
sba(iyelp_data_provider
YelpReview
p5015
(dp5016
g14
S'3.0'
p5017
sg16
S'2011-07-12'
p5018
sba(iyelp_data_provider
YelpReview
p5019
(dp5020
g14
S'4.0'
p5021
sg16
S'2011-05-25'
p5022
sba(iyelp_data_provider
YelpReview
p5023
(dp5024
g14
S'4.0'
p5025
sg16
S'2010-03-10'
p5026
sba(iyelp_data_provider
YelpReview
p5027
(dp5028
g14
S'4.0'
p5029
sg16
S'2010-06-19'
p5030
sba(iyelp_data_provider
YelpReview
p5031
(dp5032
g14
S'4.0'
p5033
sg16
S'2011-03-22'
p5034
sba(iyelp_data_provider
YelpReview
p5035
(dp5036
g14
S'5.0'
p5037
sg16
S'2012-05-09'
p5038
sba(iyelp_data_provider
YelpReview
p5039
(dp5040
g14
S'5.0'
p5041
sg16
S'2010-11-04'
p5042
sba(iyelp_data_provider
YelpReview
p5043
(dp5044
g14
S'4.0'
p5045
sg16
S'2010-06-28'
p5046
sba(iyelp_data_provider
YelpReview
p5047
(dp5048
g14
S'5.0'
p5049
sg16
S'2009-08-05'
p5050
sba(iyelp_data_provider
YelpReview
p5051
(dp5052
g14
S'4.0'
p5053
sg16
S'2010-04-17'
p5054
sba(iyelp_data_provider
YelpReview
p5055
(dp5056
g14
S'5.0'
p5057
sg16
S'2010-04-24'
p5058
sba(iyelp_data_provider
YelpReview
p5059
(dp5060
g14
S'5.0'
p5061
sg16
S'2011-03-04'
p5062
sba(iyelp_data_provider
YelpReview
p5063
(dp5064
g14
S'4.0'
p5065
sg16
S'2009-07-01'
p5066
sba(iyelp_data_provider
YelpReview
p5067
(dp5068
g14
S'5.0'
p5069
sg16
S'2009-08-08'
p5070
sba(iyelp_data_provider
YelpReview
p5071
(dp5072
g14
S'4.5'
p5073
sg16
S'2009-12-28'
p5074
sba(iyelp_data_provider
YelpReview
p5075
(dp5076
g14
S'4.0'
p5077
sg16
S'2009-04-21'
p5078
sba(iyelp_data_provider
YelpReview
p5079
(dp5080
g14
S'4.0'
p5081
sg16
S'2009-11-25'
p5082
sba(iyelp_data_provider
YelpReview
p5083
(dp5084
g14
S'5.0'
p5085
sg16
S'2009-11-07'
p5086
sba(iyelp_data_provider
YelpReview
p5087
(dp5088
g14
S'4.0'
p5089
sg16
S'2009-11-13'
p5090
sba(iyelp_data_provider
YelpReview
p5091
(dp5092
g14
S'3.0'
p5093
sg16
S'2010-12-30'
p5094
sba(iyelp_data_provider
YelpReview
p5095
(dp5096
g14
S'5.0'
p5097
sg16
S'2011-05-30'
p5098
sba(iyelp_data_provider
YelpReview
p5099
(dp5100
g14
S'4.0'
p5101
sg16
S'2010-04-18'
p5102
sba(iyelp_data_provider
YelpReview
p5103
(dp5104
g14
S'3.0'
p5105
sg16
S'2010-09-03'
p5106
sba(iyelp_data_provider
YelpReview
p5107
(dp5108
g14
S'5.0'
p5109
sg16
S'2010-11-03'
p5110
sba(iyelp_data_provider
YelpReview
p5111
(dp5112
g14
S'5.0'
p5113
sg16
S'2010-01-02'
p5114
sba(iyelp_data_provider
YelpReview
p5115
(dp5116
g14
S'4.0'
p5117
sg16
S'2011-01-29'
p5118
sba(iyelp_data_provider
YelpReview
p5119
(dp5120
g14
S'4.0'
p5121
sg16
S'2010-11-22'
p5122
sba(iyelp_data_provider
YelpReview
p5123
(dp5124
g14
S'5.0'
p5125
sg16
S'2010-02-28'
p5126
sba(iyelp_data_provider
YelpReview
p5127
(dp5128
g14
S'5.0'
p5129
sg16
S'2011-04-09'
p5130
sba(iyelp_data_provider
YelpReview
p5131
(dp5132
g14
S'4.0'
p5133
sg16
S'2011-03-12'
p5134
sba(iyelp_data_provider
YelpReview
p5135
(dp5136
g14
S'4.0'
p5137
sg16
S'2012-02-10'
p5138
sba(iyelp_data_provider
YelpReview
p5139
(dp5140
g14
S'5.0'
p5141
sg16
S'2012-02-24'
p5142
sba(iyelp_data_provider
YelpReview
p5143
(dp5144
g14
S'5.0'
p5145
sg16
S'2010-01-09'
p5146
sba(iyelp_data_provider
YelpReview
p5147
(dp5148
g14
S'2.0'
p5149
sg16
S'2010-01-09'
p5150
sba(iyelp_data_provider
YelpReview
p5151
(dp5152
g14
S'4.0'
p5153
sg16
S'2010-06-19'
p5154
sba(iyelp_data_provider
YelpReview
p5155
(dp5156
g14
S'4.0'
p5157
sg16
S'2010-11-01'
p5158
sba(iyelp_data_provider
YelpReview
p5159
(dp5160
g14
S'5.0'
p5161
sg16
S'2009-04-30'
p5162
sba(iyelp_data_provider
YelpReview
p5163
(dp5164
g14
S'4.0'
p5165
sg16
S'2010-12-13'
p5166
sba(iyelp_data_provider
YelpReview
p5167
(dp5168
g14
S'5.0'
p5169
sg16
S'2009-06-12'
p5170
sba(iyelp_data_provider
YelpReview
p5171
(dp5172
g14
S'4.0'
p5173
sg16
S'2012-01-16'
p5174
sba(iyelp_data_provider
YelpReview
p5175
(dp5176
g14
S'5.0'
p5177
sg16
S'2010-05-22'
p5178
sba(iyelp_data_provider
YelpReview
p5179
(dp5180
g14
S'5.0'
p5181
sg16
S'2010-06-11'
p5182
sba(iyelp_data_provider
YelpReview
p5183
(dp5184
g14
S'2.0'
p5185
sg16
S'2011-05-22'
p5186
sba(iyelp_data_provider
YelpReview
p5187
(dp5188
g14
S'4.0'
p5189
sg16
S'2010-11-19'
p5190
sba(iyelp_data_provider
YelpReview
p5191
(dp5192
g14
S'2.0'
p5193
sg16
S'2011-02-05'
p5194
sba(iyelp_data_provider
YelpReview
p5195
(dp5196
g14
S'4.0'
p5197
sg16
S'2011-06-12'
p5198
sba(iyelp_data_provider
YelpReview
p5199
(dp5200
g14
S'5.0'
p5201
sg16
S'2011-01-27'
p5202
sba(iyelp_data_provider
YelpReview
p5203
(dp5204
g14
S'4.0'
p5205
sg16
S'2010-10-01'
p5206
sba(iyelp_data_provider
YelpReview
p5207
(dp5208
g14
S'5.0'
p5209
sg16
S'2012-07-27'
p5210
sba(iyelp_data_provider
YelpReview
p5211
(dp5212
g14
S'4.0'
p5213
sg16
S'2011-11-29'
p5214
sba(iyelp_data_provider
YelpReview
p5215
(dp5216
g14
S'4.0'
p5217
sg16
S'2010-12-11'
p5218
sba(iyelp_data_provider
YelpReview
p5219
(dp5220
g14
S'4.0'
p5221
sg16
S'2012-03-25'
p5222
sba(iyelp_data_provider
YelpReview
p5223
(dp5224
g14
S'4.0'
p5225
sg16
S'2011-01-20'
p5226
sba(iyelp_data_provider
YelpReview
p5227
(dp5228
g14
S'4.0'
p5229
sg16
S'2010-06-22'
p5230
sba(iyelp_data_provider
YelpReview
p5231
(dp5232
g14
S'4.5'
p5233
sg16
S'2009-12-06'
p5234
sba(iyelp_data_provider
YelpReview
p5235
(dp5236
g14
S'4.0'
p5237
sg16
S'2011-06-27'
p5238
sba(iyelp_data_provider
YelpReview
p5239
(dp5240
g14
S'5.0'
p5241
sg16
S'2010-01-31'
p5242
sba(iyelp_data_provider
YelpReview
p5243
(dp5244
g14
S'5.0'
p5245
sg16
S'2011-03-31'
p5246
sba(iyelp_data_provider
YelpReview
p5247
(dp5248
g14
S'4.0'
p5249
sg16
S'2010-01-24'
p5250
sba(iyelp_data_provider
YelpReview
p5251
(dp5252
g14
S'3.0'
p5253
sg16
S'2010-01-08'
p5254
sba(iyelp_data_provider
YelpReview
p5255
(dp5256
g14
S'4.0'
p5257
sg16
S'2011-11-02'
p5258
sba(iyelp_data_provider
YelpReview
p5259
(dp5260
g14
S'4.0'
p5261
sg16
S'2011-06-16'
p5262
sba(iyelp_data_provider
YelpReview
p5263
(dp5264
g14
S'5.0'
p5265
sg16
S'2012-02-23'
p5266
sba(iyelp_data_provider
YelpReview
p5267
(dp5268
g14
S'1.0'
p5269
sg16
S'2009-08-26'
p5270
sba(iyelp_data_provider
YelpReview
p5271
(dp5272
g14
S'4.0'
p5273
sg16
S'2010-01-04'
p5274
sba(iyelp_data_provider
YelpReview
p5275
(dp5276
g14
S'5.0'
p5277
sg16
S'2010-03-11'
p5278
sba(iyelp_data_provider
YelpReview
p5279
(dp5280
g14
S'4.0'
p5281
sg16
S'2010-05-09'
p5282
sba(iyelp_data_provider
YelpReview
p5283
(dp5284
g14
S'4.0'
p5285
sg16
S'2010-06-10'
p5286
sba(iyelp_data_provider
YelpReview
p5287
(dp5288
g14
S'4.0'
p5289
sg16
S'2010-11-27'
p5290
sba(iyelp_data_provider
YelpReview
p5291
(dp5292
g14
S'3.0'
p5293
sg16
S'2010-11-30'
p5294
sba(iyelp_data_provider
YelpReview
p5295
(dp5296
g14
S'4.0'
p5297
sg16
S'2011-01-03'
p5298
sba(iyelp_data_provider
YelpReview
p5299
(dp5300
g14
S'5.0'
p5301
sg16
S'2011-02-08'
p5302
sba(iyelp_data_provider
YelpReview
p5303
(dp5304
g14
S'5.0'
p5305
sg16
S'2011-04-11'
p5306
sba(iyelp_data_provider
YelpReview
p5307
(dp5308
g14
S'4.0'
p5309
sg16
S'2012-01-14'
p5310
sba(iyelp_data_provider
YelpReview
p5311
(dp5312
g14
S'5.0'
p5313
sg16
S'2011-12-31'
p5314
sba(iyelp_data_provider
YelpReview
p5315
(dp5316
g14
S'4.0'
p5317
sg16
S'2011-09-17'
p5318
sba(iyelp_data_provider
YelpReview
p5319
(dp5320
g14
S'2.0'
p5321
sg16
S'2011-11-20'
p5322
sba(iyelp_data_provider
YelpReview
p5323
(dp5324
g14
S'4.0'
p5325
sg16
S'2012-01-19'
p5326
sba(iyelp_data_provider
YelpReview
p5327
(dp5328
g14
S'5.0'
p5329
sg16
S'2010-02-19'
p5330
sba(iyelp_data_provider
YelpReview
p5331
(dp5332
g14
S'5.0'
p5333
sg16
S'2011-02-17'
p5334
sba(iyelp_data_provider
YelpReview
p5335
(dp5336
g14
S'4.0'
p5337
sg16
S'2009-08-06'
p5338
sba(iyelp_data_provider
YelpReview
p5339
(dp5340
g14
S'4.0'
p5341
sg16
S'2010-09-09'
p5342
sba(iyelp_data_provider
YelpReview
p5343
(dp5344
g14
S'4.0'
p5345
sg16
S'2010-02-22'
p5346
sba(iyelp_data_provider
YelpReview
p5347
(dp5348
g14
S'4.0'
p5349
sg16
S'2010-03-26'
p5350
sba(iyelp_data_provider
YelpReview
p5351
(dp5352
g14
S'4.0'
p5353
sg16
S'2011-01-08'
p5354
sba(iyelp_data_provider
YelpReview
p5355
(dp5356
g14
S'4.0'
p5357
sg16
S'2009-11-23'
p5358
sba(iyelp_data_provider
YelpReview
p5359
(dp5360
g14
S'5.0'
p5361
sg16
S'2010-09-19'
p5362
sba(iyelp_data_provider
YelpReview
p5363
(dp5364
g14
S'5.0'
p5365
sg16
S'2012-01-24'
p5366
sba(iyelp_data_provider
YelpReview
p5367
(dp5368
g14
S'4.0'
p5369
sg16
S'2011-01-11'
p5370
sba(iyelp_data_provider
YelpReview
p5371
(dp5372
g14
S'5.0'
p5373
sg16
S'2009-04-27'
p5374
sba(iyelp_data_provider
YelpReview
p5375
(dp5376
g14
S'5.0'
p5377
sg16
S'2009-06-21'
p5378
sba(iyelp_data_provider
YelpReview
p5379
(dp5380
g14
S'4.0'
p5381
sg16
S'2010-01-03'
p5382
sba(iyelp_data_provider
YelpReview
p5383
(dp5384
g14
S'4.0'
p5385
sg16
S'2010-01-10'
p5386
sba(iyelp_data_provider
YelpReview
p5387
(dp5388
g14
S'5.0'
p5389
sg16
S'2010-03-09'
p5390
sba(iyelp_data_provider
YelpReview
p5391
(dp5392
g14
S'4.5'
p5393
sg16
S'2010-05-15'
p5394
sba(iyelp_data_provider
YelpReview
p5395
(dp5396
g14
S'3.0'
p5397
sg16
S'2010-09-16'
p5398
sba(iyelp_data_provider
YelpReview
p5399
(dp5400
g14
S'5.0'
p5401
sg16
S'2011-03-30'
p5402
sba(iyelp_data_provider
YelpReview
p5403
(dp5404
g14
S'5.0'
p5405
sg16
S'2011-02-22'
p5406
sba(iyelp_data_provider
YelpReview
p5407
(dp5408
g14
S'5.0'
p5409
sg16
S'2011-08-19'
p5410
sba(iyelp_data_provider
YelpReview
p5411
(dp5412
g14
S'5.0'
p5413
sg16
S'2012-01-15'
p5414
sba(iyelp_data_provider
YelpReview
p5415
(dp5416
g14
S'5.0'
p5417
sg16
S'2011-03-22'
p5418
sba(iyelp_data_provider
YelpReview
p5419
(dp5420
g14
S'5.0'
p5421
sg16
S'2009-08-22'
p5422
sba(iyelp_data_provider
YelpReview
p5423
(dp5424
g14
S'5.0'
p5425
sg16
S'2010-05-10'
p5426
sba(iyelp_data_provider
YelpReview
p5427
(dp5428
g14
S'5.0'
p5429
sg16
S'2010-06-11'
p5430
sba(iyelp_data_provider
YelpReview
p5431
(dp5432
g14
S'5.0'
p5433
sg16
S'2010-09-24'
p5434
sba(iyelp_data_provider
YelpReview
p5435
(dp5436
g14
S'4.0'
p5437
sg16
S'2009-06-20'
p5438
sba(iyelp_data_provider
YelpReview
p5439
(dp5440
g14
S'5.0'
p5441
sg16
S'2011-10-30'
p5442
sba(iyelp_data_provider
YelpReview
p5443
(dp5444
g14
S'4.0'
p5445
sg16
S'2012-04-15'
p5446
sba(iyelp_data_provider
YelpReview
p5447
(dp5448
g14
S'5.0'
p5449
sg16
S'2010-12-17'
p5450
sba(iyelp_data_provider
YelpReview
p5451
(dp5452
g14
S'4.0'
p5453
sg16
S'2010-01-11'
p5454
sba(iyelp_data_provider
YelpReview
p5455
(dp5456
g14
S'5.0'
p5457
sg16
S'2010-03-18'
p5458
sba(iyelp_data_provider
YelpReview
p5459
(dp5460
g14
S'2.0'
p5461
sg16
S'2010-12-23'
p5462
sba(iyelp_data_provider
YelpReview
p5463
(dp5464
g14
S'4.0'
p5465
sg16
S'2012-06-25'
p5466
sba(iyelp_data_provider
YelpReview
p5467
(dp5468
g14
S'4.0'
p5469
sg16
S'2012-01-02'
p5470
sba(iyelp_data_provider
YelpReview
p5471
(dp5472
g14
S'4.0'
p5473
sg16
S'2009-08-07'
p5474
sba(iyelp_data_provider
YelpReview
p5475
(dp5476
g14
S'5.0'
p5477
sg16
S'2009-09-01'
p5478
sba(iyelp_data_provider
YelpReview
p5479
(dp5480
g14
S'5.0'
p5481
sg16
S'2010-02-10'
p5482
sba(iyelp_data_provider
YelpReview
p5483
(dp5484
g14
S'5.0'
p5485
sg16
S'2010-05-13'
p5486
sba(iyelp_data_provider
YelpReview
p5487
(dp5488
g14
S'5.0'
p5489
sg16
S'2011-12-05'
p5490
sba(iyelp_data_provider
YelpReview
p5491
(dp5492
g14
S'2.0'
p5493
sg16
S'2012-06-17'
p5494
sba(iyelp_data_provider
YelpReview
p5495
(dp5496
g14
S'5.0'
p5497
sg16
S'2010-04-29'
p5498
sba(iyelp_data_provider
YelpReview
p5499
(dp5500
g14
S'3.0'
p5501
sg16
S'2010-05-26'
p5502
sba(iyelp_data_provider
YelpReview
p5503
(dp5504
g14
S'3.0'
p5505
sg16
S'2010-09-16'
p5506
sba(iyelp_data_provider
YelpReview
p5507
(dp5508
g14
S'3.0'
p5509
sg16
S'2011-10-06'
p5510
sba(iyelp_data_provider
YelpReview
p5511
(dp5512
g14
S'3.0'
p5513
sg16
S'2011-06-28'
p5514
sba(iyelp_data_provider
YelpReview
p5515
(dp5516
g14
S'5.0'
p5517
sg16
S'2011-05-20'
p5518
sba(iyelp_data_provider
YelpReview
p5519
(dp5520
g14
S'4.0'
p5521
sg16
S'2011-06-20'
p5522
sba(iyelp_data_provider
YelpReview
p5523
(dp5524
g14
S'3.0'
p5525
sg16
S'2011-10-25'
p5526
sba(iyelp_data_provider
YelpReview
p5527
(dp5528
g14
S'5.0'
p5529
sg16
S'2009-12-14'
p5530
sba(iyelp_data_provider
YelpReview
p5531
(dp5532
g14
S'4.0'
p5533
sg16
S'2011-11-20'
p5534
sba(iyelp_data_provider
YelpReview
p5535
(dp5536
g14
S'4.0'
p5537
sg16
S'2011-02-13'
p5538
sba(iyelp_data_provider
YelpReview
p5539
(dp5540
g14
S'5.0'
p5541
sg16
S'2011-03-29'
p5542
sba(iyelp_data_provider
YelpReview
p5543
(dp5544
g14
S'4.0'
p5545
sg16
S'2010-06-24'
p5546
sba(iyelp_data_provider
YelpReview
p5547
(dp5548
g14
S'5.0'
p5549
sg16
S'2011-08-06'
p5550
sba(iyelp_data_provider
YelpReview
p5551
(dp5552
g14
S'4.5'
p5553
sg16
S'2012-05-23'
p5554
sba(iyelp_data_provider
YelpReview
p5555
(dp5556
g14
S'5.0'
p5557
sg16
S'2011-07-15'
p5558
sba(iyelp_data_provider
YelpReview
p5559
(dp5560
g14
S'4.0'
p5561
sg16
S'2010-11-28'
p5562
sba(iyelp_data_provider
YelpReview
p5563
(dp5564
g14
S'5.0'
p5565
sg16
S'2011-01-03'
p5566
sba(iyelp_data_provider
YelpReview
p5567
(dp5568
g14
S'5.0'
p5569
sg16
S'2011-02-15'
p5570
sba(iyelp_data_provider
YelpReview
p5571
(dp5572
g14
S'5.0'
p5573
sg16
S'2009-06-24'
p5574
sba(iyelp_data_provider
YelpReview
p5575
(dp5576
g14
S'4.0'
p5577
sg16
S'2011-04-28'
p5578
sba(iyelp_data_provider
YelpReview
p5579
(dp5580
g14
S'4.0'
p5581
sg16
S'2011-08-26'
p5582
sba(iyelp_data_provider
YelpReview
p5583
(dp5584
g14
S'1.0'
p5585
sg16
S'2010-01-07'
p5586
sba(iyelp_data_provider
YelpReview
p5587
(dp5588
g14
S'5.0'
p5589
sg16
S'2011-06-28'
p5590
sba(iyelp_data_provider
YelpReview
p5591
(dp5592
g14
S'4.0'
p5593
sg16
S'2011-09-18'
p5594
sba(iyelp_data_provider
YelpReview
p5595
(dp5596
g14
S'5.0'
p5597
sg16
S'2010-01-24'
p5598
sba(iyelp_data_provider
YelpReview
p5599
(dp5600
g14
S'5.0'
p5601
sg16
S'2009-08-04'
p5602
sba(iyelp_data_provider
YelpReview
p5603
(dp5604
g14
S'5.0'
p5605
sg16
S'2009-09-10'
p5606
sba(iyelp_data_provider
YelpReview
p5607
(dp5608
g14
S'3.0'
p5609
sg16
S'2009-07-09'
p5610
sba(iyelp_data_provider
YelpReview
p5611
(dp5612
g14
S'5.0'
p5613
sg16
S'2011-07-30'
p5614
sba(iyelp_data_provider
YelpReview
p5615
(dp5616
g14
S'5.0'
p5617
sg16
S'2011-09-03'
p5618
sba(iyelp_data_provider
YelpReview
p5619
(dp5620
g14
S'5.0'
p5621
sg16
S'2010-03-10'
p5622
sba(iyelp_data_provider
YelpReview
p5623
(dp5624
g14
S'5.0'
p5625
sg16
S'2009-05-27'
p5626
sba(iyelp_data_provider
YelpReview
p5627
(dp5628
g14
S'4.0'
p5629
sg16
S'2010-01-17'
p5630
sba(iyelp_data_provider
YelpReview
p5631
(dp5632
g14
S'3.0'
p5633
sg16
S'2010-08-09'
p5634
sba(iyelp_data_provider
YelpReview
p5635
(dp5636
g14
S'5.0'
p5637
sg16
S'2011-01-06'
p5638
sba(iyelp_data_provider
YelpReview
p5639
(dp5640
g14
S'5.0'
p5641
sg16
S'2011-08-07'
p5642
sba(iyelp_data_provider
YelpReview
p5643
(dp5644
g14
S'5.0'
p5645
sg16
S'2009-06-06'
p5646
sba(iyelp_data_provider
YelpReview
p5647
(dp5648
g14
S'5.0'
p5649
sg16
S'2009-08-30'
p5650
sba(iyelp_data_provider
YelpReview
p5651
(dp5652
g14
S'4.0'
p5653
sg16
S'2009-11-24'
p5654
sba(iyelp_data_provider
YelpReview
p5655
(dp5656
g14
S'4.0'
p5657
sg16
S'2011-05-12'
p5658
sba(iyelp_data_provider
YelpReview
p5659
(dp5660
g14
S'4.0'
p5661
sg16
S'2011-06-09'
p5662
sba(iyelp_data_provider
YelpReview
p5663
(dp5664
g14
S'5.0'
p5665
sg16
S'2012-02-25'
p5666
sba(iyelp_data_provider
YelpReview
p5667
(dp5668
g14
S'5.0'
p5669
sg16
S'2010-11-27'
p5670
sba(iyelp_data_provider
YelpReview
p5671
(dp5672
g14
S'3.0'
p5673
sg16
S'2011-05-04'
p5674
sba(iyelp_data_provider
YelpReview
p5675
(dp5676
g14
S'5.0'
p5677
sg16
S'2011-03-18'
p5678
sba(iyelp_data_provider
YelpReview
p5679
(dp5680
g14
S'4.0'
p5681
sg16
S'2011-07-06'
p5682
sba(iyelp_data_provider
YelpReview
p5683
(dp5684
g14
S'5.0'
p5685
sg16
S'2010-05-13'
p5686
sba(iyelp_data_provider
YelpReview
p5687
(dp5688
g14
S'3.0'
p5689
sg16
S'2011-06-28'
p5690
sba(iyelp_data_provider
YelpReview
p5691
(dp5692
g14
S'5.0'
p5693
sg16
S'2010-09-23'
p5694
sba(iyelp_data_provider
YelpReview
p5695
(dp5696
g14
S'5.0'
p5697
sg16
S'2011-05-21'
p5698
sba(iyelp_data_provider
YelpReview
p5699
(dp5700
g14
S'4.0'
p5701
sg16
S'2011-01-12'
p5702
sba(iyelp_data_provider
YelpReview
p5703
(dp5704
g14
S'5.0'
p5705
sg16
S'2010-07-24'
p5706
sba(iyelp_data_provider
YelpReview
p5707
(dp5708
g14
S'5.0'
p5709
sg16
S'2011-01-05'
p5710
sba(iyelp_data_provider
YelpReview
p5711
(dp5712
g14
S'4.5'
p5713
sg16
S'2010-12-27'
p5714
sba(iyelp_data_provider
YelpReview
p5715
(dp5716
g14
S'5.0'
p5717
sg16
S'2009-08-21'
p5718
sba(iyelp_data_provider
YelpReview
p5719
(dp5720
g14
S'4.0'
p5721
sg16
S'2009-10-02'
p5722
sba(iyelp_data_provider
YelpReview
p5723
(dp5724
g14
S'4.0'
p5725
sg16
S'2009-11-02'
p5726
sba(iyelp_data_provider
YelpReview
p5727
(dp5728
g14
S'4.0'
p5729
sg16
S'2010-07-30'
p5730
sba(iyelp_data_provider
YelpReview
p5731
(dp5732
g14
S'5.0'
p5733
sg16
S'2010-12-01'
p5734
sba(iyelp_data_provider
YelpReview
p5735
(dp5736
g14
S'4.0'
p5737
sg16
S'2012-02-07'
p5738
sba(iyelp_data_provider
YelpReview
p5739
(dp5740
g14
S'5.0'
p5741
sg16
S'2011-03-02'
p5742
sba(iyelp_data_provider
YelpReview
p5743
(dp5744
g14
S'5.0'
p5745
sg16
S'2010-05-01'
p5746
sba(iyelp_data_provider
YelpReview
p5747
(dp5748
g14
S'5.0'
p5749
sg16
S'2010-04-17'
p5750
sba(iyelp_data_provider
YelpReview
p5751
(dp5752
g14
S'5.0'
p5753
sg16
S'2010-11-05'
p5754
sba(iyelp_data_provider
YelpReview
p5755
(dp5756
g14
S'5.0'
p5757
sg16
S'2011-01-07'
p5758
sba(iyelp_data_provider
YelpReview
p5759
(dp5760
g14
S'5.0'
p5761
sg16
S'2009-09-06'
p5762
sba(iyelp_data_provider
YelpReview
p5763
(dp5764
g14
S'4.0'
p5765
sg16
S'2010-09-16'
p5766
sba(iyelp_data_provider
YelpReview
p5767
(dp5768
g14
S'4.0'
p5769
sg16
S'2010-05-22'
p5770
sba(iyelp_data_provider
YelpReview
p5771
(dp5772
g14
S'3.0'
p5773
sg16
S'2010-05-27'
p5774
sba(iyelp_data_provider
YelpReview
p5775
(dp5776
g14
S'4.0'
p5777
sg16
S'2010-09-07'
p5778
sba(iyelp_data_provider
YelpReview
p5779
(dp5780
g14
S'4.0'
p5781
sg16
S'2011-10-17'
p5782
sba(iyelp_data_provider
YelpReview
p5783
(dp5784
g14
S'5.0'
p5785
sg16
S'2011-02-18'
p5786
sba(iyelp_data_provider
YelpReview
p5787
(dp5788
g14
S'4.0'
p5789
sg16
S'2010-12-29'
p5790
sba(iyelp_data_provider
YelpReview
p5791
(dp5792
g14
S'4.0'
p5793
sg16
S'2012-01-26'
p5794
sba(iyelp_data_provider
YelpReview
p5795
(dp5796
g14
S'5.0'
p5797
sg16
S'2010-12-13'
p5798
sba(iyelp_data_provider
YelpReview
p5799
(dp5800
g14
S'3.0'
p5801
sg16
S'2010-03-21'
p5802
sba(iyelp_data_provider
YelpReview
p5803
(dp5804
g14
S'4.0'
p5805
sg16
S'2010-10-20'
p5806
sba(iyelp_data_provider
YelpReview
p5807
(dp5808
g14
S'4.0'
p5809
sg16
S'2010-11-02'
p5810
sba(iyelp_data_provider
YelpReview
p5811
(dp5812
g14
S'5.0'
p5813
sg16
S'2009-04-26'
p5814
sba(iyelp_data_provider
YelpReview
p5815
(dp5816
g14
S'4.0'
p5817
sg16
S'2010-05-03'
p5818
sba(iyelp_data_provider
YelpReview
p5819
(dp5820
g14
S'5.0'
p5821
sg16
S'2010-08-23'
p5822
sba(iyelp_data_provider
YelpReview
p5823
(dp5824
g14
S'5.0'
p5825
sg16
S'2010-09-06'
p5826
sba(iyelp_data_provider
YelpReview
p5827
(dp5828
g14
S'4.0'
p5829
sg16
S'2010-11-07'
p5830
sba(iyelp_data_provider
YelpReview
p5831
(dp5832
g14
S'5.0'
p5833
sg16
S'2010-11-09'
p5834
sba(iyelp_data_provider
YelpReview
p5835
(dp5836
g14
S'5.0'
p5837
sg16
S'2010-02-14'
p5838
sba(iyelp_data_provider
YelpReview
p5839
(dp5840
g14
S'4.0'
p5841
sg16
S'2010-02-15'
p5842
sba(iyelp_data_provider
YelpReview
p5843
(dp5844
g14
S'5.0'
p5845
sg16
S'2010-07-06'
p5846
sba(iyelp_data_provider
YelpReview
p5847
(dp5848
g14
S'4.0'
p5849
sg16
S'2011-12-06'
p5850
sba(iyelp_data_provider
YelpReview
p5851
(dp5852
g14
S'4.0'
p5853
sg16
S'2011-01-03'
p5854
sba(iyelp_data_provider
YelpReview
p5855
(dp5856
g14
S'4.0'
p5857
sg16
S'2009-10-15'
p5858
sba(iyelp_data_provider
YelpReview
p5859
(dp5860
g14
S'5.0'
p5861
sg16
S'2009-12-11'
p5862
sba(iyelp_data_provider
YelpReview
p5863
(dp5864
g14
S'4.0'
p5865
sg16
S'2010-06-14'
p5866
sba(iyelp_data_provider
YelpReview
p5867
(dp5868
g14
S'5.0'
p5869
sg16
S'2010-10-07'
p5870
sba(iyelp_data_provider
YelpReview
p5871
(dp5872
g14
S'4.5'
p5873
sg16
S'2011-11-12'
p5874
sba(iyelp_data_provider
YelpReview
p5875
(dp5876
g14
S'4.0'
p5877
sg16
S'2011-01-29'
p5878
sba(iyelp_data_provider
YelpReview
p5879
(dp5880
g14
S'4.0'
p5881
sg16
S'2011-08-16'
p5882
sba(iyelp_data_provider
YelpReview
p5883
(dp5884
g14
S'5.0'
p5885
sg16
S'2011-08-30'
p5886
sba(iyelp_data_provider
YelpReview
p5887
(dp5888
g14
S'3.0'
p5889
sg16
S'2011-05-25'
p5890
sba(iyelp_data_provider
YelpReview
p5891
(dp5892
g14
S'3.0'
p5893
sg16
S'2012-02-03'
p5894
sba(iyelp_data_provider
YelpReview
p5895
(dp5896
g14
S'4.0'
p5897
sg16
S'2010-11-28'
p5898
sba(iyelp_data_provider
YelpReview
p5899
(dp5900
g14
S'3.0'
p5901
sg16
S'2010-12-30'
p5902
sba(iyelp_data_provider
YelpReview
p5903
(dp5904
g14
S'5.0'
p5905
sg16
S'2009-06-10'
p5906
sba(iyelp_data_provider
YelpReview
p5907
(dp5908
g14
S'5.0'
p5909
sg16
S'2010-08-28'
p5910
sba(iyelp_data_provider
YelpReview
p5911
(dp5912
g14
S'5.0'
p5913
sg16
S'2010-09-04'
p5914
sba(iyelp_data_provider
YelpReview
p5915
(dp5916
g14
S'4.0'
p5917
sg16
S'2010-05-25'
p5918
sba(iyelp_data_provider
YelpReview
p5919
(dp5920
g14
S'5.0'
p5921
sg16
S'2010-12-18'
p5922
sbasg1850
I01
sg1851
F40.761787
sg2051
g3995
sg1852
ViNNw9lvY5DPCS5CmUrWMBw
p5923
sba(iyelp_data_provider
YelpBusiness
p5924
(dp5925
g3
I28
sg4
VOn Tap at Whole Foods
p5926
sg6
Vhttp://www.yelp.com/biz/on-tap-at-whole-foods-new-york
p5927
sg8
F4.0
sg9
F-73.983148
sg10
(lp5928
(iyelp_data_provider
YelpReview
p5929
(dp5930
g14
S'4.0'
p5931
sg16
S'2012-11-19'
p5932
sba(iyelp_data_provider
YelpReview
p5933
(dp5934
g14
S'5.0'
p5935
sg16
S'2012-10-14'
p5936
sba(iyelp_data_provider
YelpReview
p5937
(dp5938
g14
S'2.0'
p5939
sg16
S'2012-07-22'
p5940
sba(iyelp_data_provider
YelpReview
p5941
(dp5942
g14
S'4.0'
p5943
sg16
S'2012-12-11'
p5944
sba(iyelp_data_provider
YelpReview
p5945
(dp5946
g14
S'4.0'
p5947
sg16
S'2012-11-28'
p5948
sba(iyelp_data_provider
YelpReview
p5949
(dp5950
g14
S'4.0'
p5951
sg16
S'2012-07-13'
p5952
sba(iyelp_data_provider
YelpReview
p5953
(dp5954
g14
S'4.0'
p5955
sg16
S'2012-10-05'
p5956
sba(iyelp_data_provider
YelpReview
p5957
(dp5958
g14
S'4.0'
p5959
sg16
S'2012-05-21'
p5960
sba(iyelp_data_provider
YelpReview
p5961
(dp5962
g14
S'4.0'
p5963
sg16
S'2012-07-16'
p5964
sba(iyelp_data_provider
YelpReview
p5965
(dp5966
g14
S'3.0'
p5967
sg16
S'2012-03-16'
p5968
sba(iyelp_data_provider
YelpReview
p5969
(dp5970
g14
S'5.0'
p5971
sg16
S'2012-09-29'
p5972
sba(iyelp_data_provider
YelpReview
p5973
(dp5974
g14
S'5.0'
p5975
sg16
S'2012-01-07'
p5976
sba(iyelp_data_provider
YelpReview
p5977
(dp5978
g14
S'4.0'
p5979
sg16
S'2011-12-17'
p5980
sba(iyelp_data_provider
YelpReview
p5981
(dp5982
g14
S'4.0'
p5983
sg16
S'2012-01-25'
p5984
sba(iyelp_data_provider
YelpReview
p5985
(dp5986
g14
S'4.0'
p5987
sg16
S'2012-10-18'
p5988
sba(iyelp_data_provider
YelpReview
p5989
(dp5990
g14
S'4.0'
p5991
sg16
S'2011-11-22'
p5992
sba(iyelp_data_provider
YelpReview
p5993
(dp5994
g14
S'4.0'
p5995
sg16
S'2011-12-16'
p5996
sba(iyelp_data_provider
YelpReview
p5997
(dp5998
g14
S'4.0'
p5999
sg16
S'2011-11-17'
p6000
sba(iyelp_data_provider
YelpReview
p6001
(dp6002
g14
S'4.0'
p6003
sg16
S'2012-02-13'
p6004
sba(iyelp_data_provider
YelpReview
p6005
(dp6006
g14
S'3.0'
p6007
sg16
S'2011-12-29'
p6008
sba(iyelp_data_provider
YelpReview
p6009
(dp6010
g14
S'4.0'
p6011
sg16
S'2011-12-27'
p6012
sba(iyelp_data_provider
YelpReview
p6013
(dp6014
g14
S'5.0'
p6015
sg16
S'2011-11-28'
p6016
sba(iyelp_data_provider
YelpReview
p6017
(dp6018
g14
S'4.0'
p6019
sg16
S'2012-04-16'
p6020
sba(iyelp_data_provider
YelpReview
p6021
(dp6022
g14
S'5.0'
p6023
sg16
S'2012-04-20'
p6024
sba(iyelp_data_provider
YelpReview
p6025
(dp6026
g14
S'4.0'
p6027
sg16
S'2011-11-20'
p6028
sba(iyelp_data_provider
YelpReview
p6029
(dp6030
g14
S'5.0'
p6031
sg16
S'2011-11-11'
p6032
sba(iyelp_data_provider
YelpReview
p6033
(dp6034
g14
S'4.0'
p6035
sg16
S'2011-12-24'
p6036
sba(iyelp_data_provider
YelpReview
p6037
(dp6038
g14
S'4.0'
p6039
sg16
S'2011-11-14'
p6040
sbasg1850
I01
sg1851
F40.768783
sg1852
ViWRYWZO0HW_SexvNZo2CUg
p6041
sba(iyelp_data_provider
YelpBusiness
p6042
(dp6043
g3
I40
sg4
VLantern's Keep
p6044
sg6
Vhttp://www.yelp.com/biz/lanterns-keep-new-york
p6045
sg8
F4.0
sg9
F-73.982102
sg10
(lp6046
(iyelp_data_provider
YelpReview
p6047
(dp6048
g14
S'4.0'
p6049
sg16
S'2012-12-10'
p6050
sba(iyelp_data_provider
YelpReview
p6051
(dp6052
g14
S'5.0'
p6053
sg16
S'2012-11-17'
p6054
sba(iyelp_data_provider
YelpReview
p6055
(dp6056
g14
S'2.0'
p6057
sg16
S'2012-10-21'
p6058
sba(iyelp_data_provider
YelpReview
p6059
(dp6060
g14
S'4.0'
p6061
sg16
S'2012-12-07'
p6062
sba(iyelp_data_provider
YelpReview
p6063
(dp6064
g14
S'4.0'
p6065
sg16
S'2012-10-19'
p6066
sba(iyelp_data_provider
YelpReview
p6067
(dp6068
g14
S'4.0'
p6069
sg16
S'2012-10-08'
p6070
sba(iyelp_data_provider
YelpReview
p6071
(dp6072
g14
S'4.0'
p6073
sg16
S'2012-10-04'
p6074
sba(iyelp_data_provider
YelpReview
p6075
(dp6076
g14
S'4.0'
p6077
sg16
S'2012-07-10'
p6078
sba(iyelp_data_provider
YelpReview
p6079
(dp6080
g14
S'3.0'
p6081
sg16
S'2012-08-05'
p6082
sba(iyelp_data_provider
YelpReview
p6083
(dp6084
g14
S'4.0'
p6085
sg16
S'2012-07-07'
p6086
sba(iyelp_data_provider
YelpReview
p6087
(dp6088
g14
S'5.0'
p6089
sg16
S'2012-06-02'
p6090
sba(iyelp_data_provider
YelpReview
p6091
(dp6092
g14
S'5.0'
p6093
sg16
S'2012-06-01'
p6094
sba(iyelp_data_provider
YelpReview
p6095
(dp6096
g14
S'5.0'
p6097
sg16
S'2012-06-04'
p6098
sba(iyelp_data_provider
YelpReview
p6099
(dp6100
g14
S'4.0'
p6101
sg16
S'2012-03-01'
p6102
sba(iyelp_data_provider
YelpReview
p6103
(dp6104
g14
S'5.0'
p6105
sg16
S'2012-07-27'
p6106
sba(iyelp_data_provider
YelpReview
p6107
(dp6108
g14
S'4.0'
p6109
sg16
S'2011-12-08'
p6110
sba(iyelp_data_provider
YelpReview
p6111
(dp6112
g14
S'4.0'
p6113
sg16
S'2012-03-14'
p6114
sba(iyelp_data_provider
YelpReview
p6115
(dp6116
g14
S'4.0'
p6117
sg16
S'2012-07-15'
p6118
sba(iyelp_data_provider
YelpReview
p6119
(dp6120
g14
S'4.0'
p6121
sg16
S'2012-03-07'
p6122
sba(iyelp_data_provider
YelpReview
p6123
(dp6124
g14
S'5.0'
p6125
sg16
S'2011-11-16'
p6126
sba(iyelp_data_provider
YelpReview
p6127
(dp6128
g14
S'3.0'
p6129
sg16
S'2012-01-24'
p6130
sba(iyelp_data_provider
YelpReview
p6131
(dp6132
g14
S'4.0'
p6133
sg16
S'2012-05-08'
p6134
sba(iyelp_data_provider
YelpReview
p6135
(dp6136
g14
S'4.0'
p6137
sg16
S'2012-07-04'
p6138
sba(iyelp_data_provider
YelpReview
p6139
(dp6140
g14
S'2.0'
p6141
sg16
S'2011-11-23'
p6142
sba(iyelp_data_provider
YelpReview
p6143
(dp6144
g14
S'3.0'
p6145
sg16
S'2011-04-22'
p6146
sba(iyelp_data_provider
YelpReview
p6147
(dp6148
g14
S'4.0'
p6149
sg16
S'2011-04-22'
p6150
sba(iyelp_data_provider
YelpReview
p6151
(dp6152
g14
S'4.0'
p6153
sg16
S'2011-04-22'
p6154
sba(iyelp_data_provider
YelpReview
p6155
(dp6156
g14
S'3.0'
p6157
sg16
S'2011-05-12'
p6158
sba(iyelp_data_provider
YelpReview
p6159
(dp6160
g14
S'4.0'
p6161
sg16
S'2011-09-29'
p6162
sba(iyelp_data_provider
YelpReview
p6163
(dp6164
g14
S'5.0'
p6165
sg16
S'2011-11-17'
p6166
sba(iyelp_data_provider
YelpReview
p6167
(dp6168
g14
S'5.0'
p6169
sg16
S'2012-04-14'
p6170
sba(iyelp_data_provider
YelpReview
p6171
(dp6172
g14
S'1.0'
p6173
sg16
S'2011-11-12'
p6174
sba(iyelp_data_provider
YelpReview
p6175
(dp6176
g14
S'5.0'
p6177
sg16
S'2011-09-09'
p6178
sba(iyelp_data_provider
YelpReview
p6179
(dp6180
g14
S'4.0'
p6181
sg16
S'2011-11-15'
p6182
sba(iyelp_data_provider
YelpReview
p6183
(dp6184
g14
S'4.0'
p6185
sg16
S'2011-08-17'
p6186
sba(iyelp_data_provider
YelpReview
p6187
(dp6188
g14
S'5.0'
p6189
sg16
S'2011-07-11'
p6190
sba(iyelp_data_provider
YelpReview
p6191
(dp6192
g14
S'4.0'
p6193
sg16
S'2011-08-09'
p6194
sba(iyelp_data_provider
YelpReview
p6195
(dp6196
g14
S'5.0'
p6197
sg16
S'2011-08-19'
p6198
sba(iyelp_data_provider
YelpReview
p6199
(dp6200
g14
S'5.0'
p6201
sg16
S'2012-03-03'
p6202
sbasg1850
I01
sg1851
F40.7557165
sg2051
S'$$$'
p6203
sg1852
VjNwI69XCHnPfxlnpHXO0sg
p6204
sba(iyelp_data_provider
YelpBusiness
p6205
(dp6206
g3
I121
sg4
VArdesia
p6207
sg6
Vhttp://www.yelp.com/biz/ardesia-new-york
p6208
sg8
F4.0
sg9
F-73.99145811796191
sg10
(lp6209
(iyelp_data_provider
YelpReview
p6210
(dp6211
g14
S'4.0'
p6212
sg16
S'2012-12-09'
p6213
sba(iyelp_data_provider
YelpReview
p6214
(dp6215
g14
S'5.0'
p6216
sg16
S'2012-11-02'
p6217
sba(iyelp_data_provider
YelpReview
p6218
(dp6219
g14
S'3.0'
p6220
sg16
S'2012-11-02'
p6221
sba(iyelp_data_provider
YelpReview
p6222
(dp6223
g14
S'4.0'
p6224
sg16
S'2012-10-20'
p6225
sba(iyelp_data_provider
YelpReview
p6226
(dp6227
g14
S'3.0'
p6228
sg16
S'2012-09-08'
p6229
sba(iyelp_data_provider
YelpReview
p6230
(dp6231
g14
S'4.0'
p6232
sg16
S'2012-09-17'
p6233
sba(iyelp_data_provider
YelpReview
p6234
(dp6235
g14
S'5.0'
p6236
sg16
S'2012-10-18'
p6237
sba(iyelp_data_provider
YelpReview
p6238
(dp6239
g14
S'4.0'
p6240
sg16
S'2012-08-11'
p6241
sba(iyelp_data_provider
YelpReview
p6242
(dp6243
g14
S'5.0'
p6244
sg16
S'2012-10-10'
p6245
sba(iyelp_data_provider
YelpReview
p6246
(dp6247
g14
S'4.0'
p6248
sg16
S'2012-07-08'
p6249
sba(iyelp_data_provider
YelpReview
p6250
(dp6251
g14
S'5.0'
p6252
sg16
S'2012-06-11'
p6253
sba(iyelp_data_provider
YelpReview
p6254
(dp6255
g14
S'5.0'
p6256
sg16
S'2012-10-01'
p6257
sba(iyelp_data_provider
YelpReview
p6258
(dp6259
g14
S'4.0'
p6260
sg16
S'2012-06-06'
p6261
sba(iyelp_data_provider
YelpReview
p6262
(dp6263
g14
S'4.0'
p6264
sg16
S'2012-08-13'
p6265
sba(iyelp_data_provider
YelpReview
p6266
(dp6267
g14
S'4.0'
p6268
sg16
S'2012-04-01'
p6269
sba(iyelp_data_provider
YelpReview
p6270
(dp6271
g14
S'4.0'
p6272
sg16
S'2012-09-03'
p6273
sba(iyelp_data_provider
YelpReview
p6274
(dp6275
g14
S'4.0'
p6276
sg16
S'2012-03-08'
p6277
sba(iyelp_data_provider
YelpReview
p6278
(dp6279
g14
S'5.0'
p6280
sg16
S'2012-08-30'
p6281
sba(iyelp_data_provider
YelpReview
p6282
(dp6283
g14
S'5.0'
p6284
sg16
S'2012-07-27'
p6285
sba(iyelp_data_provider
YelpReview
p6286
(dp6287
g14
S'5.0'
p6288
sg16
S'2012-03-23'
p6289
sba(iyelp_data_provider
YelpReview
p6290
(dp6291
g14
S'5.0'
p6292
sg16
S'2012-05-15'
p6293
sba(iyelp_data_provider
YelpReview
p6294
(dp6295
g14
S'5.0'
p6296
sg16
S'2011-12-25'
p6297
sba(iyelp_data_provider
YelpReview
p6298
(dp6299
g14
S'3.0'
p6300
sg16
S'2012-08-25'
p6301
sba(iyelp_data_provider
YelpReview
p6302
(dp6303
g14
S'4.0'
p6304
sg16
S'2012-02-15'
p6305
sba(iyelp_data_provider
YelpReview
p6306
(dp6307
g14
S'4.0'
p6308
sg16
S'2012-02-13'
p6309
sba(iyelp_data_provider
YelpReview
p6310
(dp6311
g14
S'3.0'
p6312
sg16
S'2012-10-16'
p6313
sba(iyelp_data_provider
YelpReview
p6314
(dp6315
g14
S'5.0'
p6316
sg16
S'2012-05-26'
p6317
sba(iyelp_data_provider
YelpReview
p6318
(dp6319
g14
S'3.0'
p6320
sg16
S'2012-06-20'
p6321
sba(iyelp_data_provider
YelpReview
p6322
(dp6323
g14
S'5.0'
p6324
sg16
S'2012-06-03'
p6325
sba(iyelp_data_provider
YelpReview
p6326
(dp6327
g14
S'2.0'
p6328
sg16
S'2011-10-14'
p6329
sba(iyelp_data_provider
YelpReview
p6330
(dp6331
g14
S'4.0'
p6332
sg16
S'2011-10-12'
p6333
sba(iyelp_data_provider
YelpReview
p6334
(dp6335
g14
S'4.0'
p6336
sg16
S'2011-07-27'
p6337
sba(iyelp_data_provider
YelpReview
p6338
(dp6339
g14
S'4.0'
p6340
sg16
S'2011-10-20'
p6341
sba(iyelp_data_provider
YelpReview
p6342
(dp6343
g14
S'5.0'
p6344
sg16
S'2012-09-06'
p6345
sba(iyelp_data_provider
YelpReview
p6346
(dp6347
g14
S'3.0'
p6348
sg16
S'2012-05-09'
p6349
sba(iyelp_data_provider
YelpReview
p6350
(dp6351
g14
S'4.0'
p6352
sg16
S'2011-07-24'
p6353
sba(iyelp_data_provider
YelpReview
p6354
(dp6355
g14
S'4.0'
p6356
sg16
S'2011-12-12'
p6357
sba(iyelp_data_provider
YelpReview
p6358
(dp6359
g14
S'4.0'
p6360
sg16
S'2011-07-09'
p6361
sba(iyelp_data_provider
YelpReview
p6362
(dp6363
g14
S'4.0'
p6364
sg16
S'2011-05-02'
p6365
sba(iyelp_data_provider
YelpReview
p6366
(dp6367
g14
S'4.0'
p6368
sg16
S'2012-06-30'
p6369
sba(iyelp_data_provider
YelpReview
p6370
(dp6371
g14
S'4.0'
p6372
sg16
S'2012-06-30'
p6373
sba(iyelp_data_provider
YelpReview
p6374
(dp6375
g14
S'4.0'
p6376
sg16
S'2012-02-20'
p6377
sba(iyelp_data_provider
YelpReview
p6378
(dp6379
g14
S'4.0'
p6380
sg16
S'2011-04-04'
p6381
sba(iyelp_data_provider
YelpReview
p6382
(dp6383
g14
S'4.0'
p6384
sg16
S'2011-06-26'
p6385
sba(iyelp_data_provider
YelpReview
p6386
(dp6387
g14
S'4.0'
p6388
sg16
S'2012-09-19'
p6389
sba(iyelp_data_provider
YelpReview
p6390
(dp6391
g14
S'3.0'
p6392
sg16
S'2011-04-11'
p6393
sba(iyelp_data_provider
YelpReview
p6394
(dp6395
g14
S'4.0'
p6396
sg16
S'2011-05-01'
p6397
sba(iyelp_data_provider
YelpReview
p6398
(dp6399
g14
S'4.0'
p6400
sg16
S'2011-03-17'
p6401
sba(iyelp_data_provider
YelpReview
p6402
(dp6403
g14
S'4.0'
p6404
sg16
S'2010-11-08'
p6405
sba(iyelp_data_provider
YelpReview
p6406
(dp6407
g14
S'4.0'
p6408
sg16
S'2011-01-28'
p6409
sba(iyelp_data_provider
YelpReview
p6410
(dp6411
g14
S'5.0'
p6412
sg16
S'2010-12-03'
p6413
sba(iyelp_data_provider
YelpReview
p6414
(dp6415
g14
S'4.0'
p6416
sg16
S'2010-10-15'
p6417
sba(iyelp_data_provider
YelpReview
p6418
(dp6419
g14
S'4.0'
p6420
sg16
S'2012-02-15'
p6421
sba(iyelp_data_provider
YelpReview
p6422
(dp6423
g14
S'5.0'
p6424
sg16
S'2010-09-04'
p6425
sba(iyelp_data_provider
YelpReview
p6426
(dp6427
g14
S'4.0'
p6428
sg16
S'2009-10-14'
p6429
sba(iyelp_data_provider
YelpReview
p6430
(dp6431
g14
S'4.0'
p6432
sg16
S'2009-12-11'
p6433
sba(iyelp_data_provider
YelpReview
p6434
(dp6435
g14
S'3.0'
p6436
sg16
S'2010-05-29'
p6437
sba(iyelp_data_provider
YelpReview
p6438
(dp6439
g14
S'4.0'
p6440
sg16
S'2009-12-31'
p6441
sba(iyelp_data_provider
YelpReview
p6442
(dp6443
g14
S'2.0'
p6444
sg16
S'2012-04-29'
p6445
sba(iyelp_data_provider
YelpReview
p6446
(dp6447
g14
S'4.0'
p6448
sg16
S'2011-05-08'
p6449
sba(iyelp_data_provider
YelpReview
p6450
(dp6451
g14
S'4.0'
p6452
sg16
S'2010-04-24'
p6453
sba(iyelp_data_provider
YelpReview
p6454
(dp6455
g14
S'4.0'
p6456
sg16
S'2011-03-11'
p6457
sba(iyelp_data_provider
YelpReview
p6458
(dp6459
g14
S'4.0'
p6460
sg16
S'2010-07-08'
p6461
sba(iyelp_data_provider
YelpReview
p6462
(dp6463
g14
S'5.0'
p6464
sg16
S'2010-04-02'
p6465
sba(iyelp_data_provider
YelpReview
p6466
(dp6467
g14
S'3.0'
p6468
sg16
S'2010-01-19'
p6469
sba(iyelp_data_provider
YelpReview
p6470
(dp6471
g14
S'3.0'
p6472
sg16
S'2010-06-09'
p6473
sba(iyelp_data_provider
YelpReview
p6474
(dp6475
g14
S'4.0'
p6476
sg16
S'2010-02-24'
p6477
sba(iyelp_data_provider
YelpReview
p6478
(dp6479
g14
S'4.0'
p6480
sg16
S'2009-12-09'
p6481
sba(iyelp_data_provider
YelpReview
p6482
(dp6483
g14
S'4.0'
p6484
sg16
S'2009-12-25'
p6485
sba(iyelp_data_provider
YelpReview
p6486
(dp6487
g14
S'4.0'
p6488
sg16
S'2012-03-16'
p6489
sba(iyelp_data_provider
YelpReview
p6490
(dp6491
g14
S'5.0'
p6492
sg16
S'2012-03-28'
p6493
sba(iyelp_data_provider
YelpReview
p6494
(dp6495
g14
S'4.0'
p6496
sg16
S'2012-07-01'
p6497
sba(iyelp_data_provider
YelpReview
p6498
(dp6499
g14
S'4.0'
p6500
sg16
S'2010-07-15'
p6501
sba(iyelp_data_provider
YelpReview
p6502
(dp6503
g14
S'2.0'
p6504
sg16
S'2010-08-11'
p6505
sba(iyelp_data_provider
YelpReview
p6506
(dp6507
g14
S'4.0'
p6508
sg16
S'2009-10-31'
p6509
sba(iyelp_data_provider
YelpReview
p6510
(dp6511
g14
S'4.0'
p6512
sg16
S'2010-11-08'
p6513
sba(iyelp_data_provider
YelpReview
p6514
(dp6515
g14
S'3.0'
p6516
sg16
S'2011-11-10'
p6517
sba(iyelp_data_provider
YelpReview
p6518
(dp6519
g14
S'4.0'
p6520
sg16
S'2011-12-21'
p6521
sba(iyelp_data_provider
YelpReview
p6522
(dp6523
g14
S'4.0'
p6524
sg16
S'2010-05-26'
p6525
sba(iyelp_data_provider
YelpReview
p6526
(dp6527
g14
S'4.0'
p6528
sg16
S'2012-07-13'
p6529
sba(iyelp_data_provider
YelpReview
p6530
(dp6531
g14
S'4.0'
p6532
sg16
S'2009-12-23'
p6533
sba(iyelp_data_provider
YelpReview
p6534
(dp6535
g14
S'3.0'
p6536
sg16
S'2011-12-26'
p6537
sba(iyelp_data_provider
YelpReview
p6538
(dp6539
g14
S'5.0'
p6540
sg16
S'2012-07-09'
p6541
sba(iyelp_data_provider
YelpReview
p6542
(dp6543
g14
S'5.0'
p6544
sg16
S'2012-06-22'
p6545
sba(iyelp_data_provider
YelpReview
p6546
(dp6547
g14
S'1.0'
p6548
sg16
S'2010-04-09'
p6549
sba(iyelp_data_provider
YelpReview
p6550
(dp6551
g14
S'4.0'
p6552
sg16
S'2011-12-20'
p6553
sba(iyelp_data_provider
YelpReview
p6554
(dp6555
g14
S'2.0'
p6556
sg16
S'2011-05-04'
p6557
sba(iyelp_data_provider
YelpReview
p6558
(dp6559
g14
S'5.0'
p6560
sg16
S'2010-07-19'
p6561
sba(iyelp_data_provider
YelpReview
p6562
(dp6563
g14
S'4.0'
p6564
sg16
S'2011-06-13'
p6565
sba(iyelp_data_provider
YelpReview
p6566
(dp6567
g14
S'4.0'
p6568
sg16
S'2012-05-11'
p6569
sba(iyelp_data_provider
YelpReview
p6570
(dp6571
g14
S'3.0'
p6572
sg16
S'2009-11-05'
p6573
sba(iyelp_data_provider
YelpReview
p6574
(dp6575
g14
S'4.0'
p6576
sg16
S'2011-08-10'
p6577
sba(iyelp_data_provider
YelpReview
p6578
(dp6579
g14
S'3.0'
p6580
sg16
S'2011-06-08'
p6581
sba(iyelp_data_provider
YelpReview
p6582
(dp6583
g14
S'4.0'
p6584
sg16
S'2010-12-03'
p6585
sba(iyelp_data_provider
YelpReview
p6586
(dp6587
g14
S'5.0'
p6588
sg16
S'2011-08-28'
p6589
sba(iyelp_data_provider
YelpReview
p6590
(dp6591
g14
S'4.0'
p6592
sg16
S'2011-05-03'
p6593
sba(iyelp_data_provider
YelpReview
p6594
(dp6595
g14
S'5.0'
p6596
sg16
S'2012-04-10'
p6597
sba(iyelp_data_provider
YelpReview
p6598
(dp6599
g14
S'5.0'
p6600
sg16
S'2009-10-27'
p6601
sba(iyelp_data_provider
YelpReview
p6602
(dp6603
g14
S'4.0'
p6604
sg16
S'2011-03-22'
p6605
sba(iyelp_data_provider
YelpReview
p6606
(dp6607
g14
S'5.0'
p6608
sg16
S'2011-01-05'
p6609
sba(iyelp_data_provider
YelpReview
p6610
(dp6611
g14
S'4.0'
p6612
sg16
S'2010-12-21'
p6613
sba(iyelp_data_provider
YelpReview
p6614
(dp6615
g14
S'3.0'
p6616
sg16
S'2011-03-11'
p6617
sba(iyelp_data_provider
YelpReview
p6618
(dp6619
g14
S'4.0'
p6620
sg16
S'2011-01-27'
p6621
sba(iyelp_data_provider
YelpReview
p6622
(dp6623
g14
S'4.0'
p6624
sg16
S'2010-08-24'
p6625
sba(iyelp_data_provider
YelpReview
p6626
(dp6627
g14
S'4.0'
p6628
sg16
S'2012-01-04'
p6629
sba(iyelp_data_provider
YelpReview
p6630
(dp6631
g14
S'4.0'
p6632
sg16
S'2012-02-03'
p6633
sba(iyelp_data_provider
YelpReview
p6634
(dp6635
g14
S'4.0'
p6636
sg16
S'2011-03-26'
p6637
sba(iyelp_data_provider
YelpReview
p6638
(dp6639
g14
S'4.0'
p6640
sg16
S'2010-02-10'
p6641
sba(iyelp_data_provider
YelpReview
p6642
(dp6643
g14
S'4.0'
p6644
sg16
S'2010-09-27'
p6645
sba(iyelp_data_provider
YelpReview
p6646
(dp6647
g14
S'5.0'
p6648
sg16
S'2010-03-02'
p6649
sba(iyelp_data_provider
YelpReview
p6650
(dp6651
g14
S'4.0'
p6652
sg16
S'2010-08-02'
p6653
sba(iyelp_data_provider
YelpReview
p6654
(dp6655
g14
S'5.0'
p6656
sg16
S'2011-05-07'
p6657
sba(iyelp_data_provider
YelpReview
p6658
(dp6659
g14
S'4.0'
p6660
sg16
S'2011-11-09'
p6661
sba(iyelp_data_provider
YelpReview
p6662
(dp6663
g14
S'4.0'
p6664
sg16
S'2011-09-11'
p6665
sba(iyelp_data_provider
YelpReview
p6666
(dp6667
g14
S'5.0'
p6668
sg16
S'2011-06-23'
p6669
sba(iyelp_data_provider
YelpReview
p6670
(dp6671
g14
S'4.0'
p6672
sg16
S'2011-08-02'
p6673
sba(iyelp_data_provider
YelpReview
p6674
(dp6675
g14
S'5.0'
p6676
sg16
S'2011-06-24'
p6677
sba(iyelp_data_provider
YelpReview
p6678
(dp6679
g14
S'1.0'
p6680
sg16
S'2010-05-14'
p6681
sba(iyelp_data_provider
YelpReview
p6682
(dp6683
g14
S'4.0'
p6684
sg16
S'2010-06-07'
p6685
sba(iyelp_data_provider
YelpReview
p6686
(dp6687
g14
S'4.0'
p6688
sg16
S'2011-03-20'
p6689
sba(iyelp_data_provider
YelpReview
p6690
(dp6691
g14
S'4.0'
p6692
sg16
S'2010-11-01'
p6693
sbasg1850
I01
sg1851
F40.7660831005947
sg1852
VXVMzBs7wGeU5BWgyBL3xyQ
p6694
sba(iyelp_data_provider
YelpBusiness
p6695
(dp6696
g3
I114
sg4
VLillie's
p6697
sg6
Vhttp://www.yelp.com/biz/lillies-new-york-2
p6698
sg8
F4.0
sg9
F-73.9860666
sg10
(lp6699
(iyelp_data_provider
YelpReview
p6700
(dp6701
g14
S'4.0'
p6702
sg16
S'2012-11-28'
p6703
sba(iyelp_data_provider
YelpReview
p6704
(dp6705
g14
S'4.0'
p6706
sg16
S'2012-11-27'
p6707
sba(iyelp_data_provider
YelpReview
p6708
(dp6709
g14
S'5.0'
p6710
sg16
S'2012-11-27'
p6711
sba(iyelp_data_provider
YelpReview
p6712
(dp6713
g14
S'4.0'
p6714
sg16
S'2012-11-26'
p6715
sba(iyelp_data_provider
YelpReview
p6716
(dp6717
g14
S'5.0'
p6718
sg16
S'2012-12-06'
p6719
sba(iyelp_data_provider
YelpReview
p6720
(dp6721
g14
S'4.0'
p6722
sg16
S'2012-11-02'
p6723
sba(iyelp_data_provider
YelpReview
p6724
(dp6725
g14
S'4.0'
p6726
sg16
S'2012-10-25'
p6727
sba(iyelp_data_provider
YelpReview
p6728
(dp6729
g14
S'4.0'
p6730
sg16
S'2012-10-04'
p6731
sba(iyelp_data_provider
YelpReview
p6732
(dp6733
g14
S'3.0'
p6734
sg16
S'2012-10-01'
p6735
sba(iyelp_data_provider
YelpReview
p6736
(dp6737
g14
S'4.0'
p6738
sg16
S'2012-11-12'
p6739
sba(iyelp_data_provider
YelpReview
p6740
(dp6741
g14
S'4.0'
p6742
sg16
S'2012-09-17'
p6743
sba(iyelp_data_provider
YelpReview
p6744
(dp6745
g14
S'5.0'
p6746
sg16
S'2012-10-04'
p6747
sba(iyelp_data_provider
YelpReview
p6748
(dp6749
g14
S'1.0'
p6750
sg16
S'2012-08-23'
p6751
sba(iyelp_data_provider
YelpReview
p6752
(dp6753
g14
S'4.0'
p6754
sg16
S'2012-11-14'
p6755
sba(iyelp_data_provider
YelpReview
p6756
(dp6757
g14
S'4.0'
p6758
sg16
S'2012-08-13'
p6759
sba(iyelp_data_provider
YelpReview
p6760
(dp6761
g14
S'4.0'
p6762
sg16
S'2012-09-13'
p6763
sba(iyelp_data_provider
YelpReview
p6764
(dp6765
g14
S'5.0'
p6766
sg16
S'2012-09-30'
p6767
sba(iyelp_data_provider
YelpReview
p6768
(dp6769
g14
S'4.0'
p6770
sg16
S'2012-11-02'
p6771
sba(iyelp_data_provider
YelpReview
p6772
(dp6773
g14
S'5.0'
p6774
sg16
S'2012-09-26'
p6775
sba(iyelp_data_provider
YelpReview
p6776
(dp6777
g14
S'2.0'
p6778
sg16
S'2012-08-11'
p6779
sba(iyelp_data_provider
YelpReview
p6780
(dp6781
g14
S'4.0'
p6782
sg16
S'2012-11-05'
p6783
sba(iyelp_data_provider
YelpReview
p6784
(dp6785
g14
S'5.0'
p6786
sg16
S'2012-09-12'
p6787
sba(iyelp_data_provider
YelpReview
p6788
(dp6789
g14
S'3.0'
p6790
sg16
S'2012-07-23'
p6791
sba(iyelp_data_provider
YelpReview
p6792
(dp6793
g14
S'4.0'
p6794
sg16
S'2012-08-13'
p6795
sba(iyelp_data_provider
YelpReview
p6796
(dp6797
g14
S'4.0'
p6798
sg16
S'2012-07-10'
p6799
sba(iyelp_data_provider
YelpReview
p6800
(dp6801
g14
S'4.0'
p6802
sg16
S'2012-08-05'
p6803
sba(iyelp_data_provider
YelpReview
p6804
(dp6805
g14
S'4.0'
p6806
sg16
S'2012-08-01'
p6807
sba(iyelp_data_provider
YelpReview
p6808
(dp6809
g14
S'3.0'
p6810
sg16
S'2012-07-26'
p6811
sba(iyelp_data_provider
YelpReview
p6812
(dp6813
g14
S'3.0'
p6814
sg16
S'2012-06-25'
p6815
sba(iyelp_data_provider
YelpReview
p6816
(dp6817
g14
S'4.0'
p6818
sg16
S'2012-10-14'
p6819
sba(iyelp_data_provider
YelpReview
p6820
(dp6821
g14
S'4.0'
p6822
sg16
S'2012-06-14'
p6823
sba(iyelp_data_provider
YelpReview
p6824
(dp6825
g14
S'5.0'
p6826
sg16
S'2012-06-14'
p6827
sba(iyelp_data_provider
YelpReview
p6828
(dp6829
g14
S'4.0'
p6830
sg16
S'2012-05-29'
p6831
sba(iyelp_data_provider
YelpReview
p6832
(dp6833
g14
S'5.0'
p6834
sg16
S'2012-06-24'
p6835
sba(iyelp_data_provider
YelpReview
p6836
(dp6837
g14
S'4.0'
p6838
sg16
S'2012-05-13'
p6839
sba(iyelp_data_provider
YelpReview
p6840
(dp6841
g14
S'4.0'
p6842
sg16
S'2012-09-02'
p6843
sba(iyelp_data_provider
YelpReview
p6844
(dp6845
g14
S'4.0'
p6846
sg16
S'2012-05-26'
p6847
sba(iyelp_data_provider
YelpReview
p6848
(dp6849
g14
S'4.0'
p6850
sg16
S'2012-06-15'
p6851
sba(iyelp_data_provider
YelpReview
p6852
(dp6853
g14
S'3.0'
p6854
sg16
S'2012-04-02'
p6855
sba(iyelp_data_provider
YelpReview
p6856
(dp6857
g14
S'5.0'
p6858
sg16
S'2012-03-08'
p6859
sba(iyelp_data_provider
YelpReview
p6860
(dp6861
g14
S'4.0'
p6862
sg16
S'2012-02-28'
p6863
sba(iyelp_data_provider
YelpReview
p6864
(dp6865
g14
S'5.0'
p6866
sg16
S'2012-09-18'
p6867
sba(iyelp_data_provider
YelpReview
p6868
(dp6869
g14
S'5.0'
p6870
sg16
S'2012-08-21'
p6871
sba(iyelp_data_provider
YelpReview
p6872
(dp6873
g14
S'3.0'
p6874
sg16
S'2012-01-29'
p6875
sba(iyelp_data_provider
YelpReview
p6876
(dp6877
g14
S'4.0'
p6878
sg16
S'2012-03-12'
p6879
sba(iyelp_data_provider
YelpReview
p6880
(dp6881
g14
S'5.0'
p6882
sg16
S'2012-05-31'
p6883
sba(iyelp_data_provider
YelpReview
p6884
(dp6885
g14
S'3.0'
p6886
sg16
S'2012-02-16'
p6887
sba(iyelp_data_provider
YelpReview
p6888
(dp6889
g14
S'5.0'
p6890
sg16
S'2012-04-07'
p6891
sba(iyelp_data_provider
YelpReview
p6892
(dp6893
g14
S'4.0'
p6894
sg16
S'2012-03-21'
p6895
sba(iyelp_data_provider
YelpReview
p6896
(dp6897
g14
S'4.0'
p6898
sg16
S'2012-01-21'
p6899
sba(iyelp_data_provider
YelpReview
p6900
(dp6901
g14
S'5.0'
p6902
sg16
S'2012-03-26'
p6903
sba(iyelp_data_provider
YelpReview
p6904
(dp6905
g14
S'3.0'
p6906
sg16
S'2012-07-24'
p6907
sba(iyelp_data_provider
YelpReview
p6908
(dp6909
g14
S'4.0'
p6910
sg16
S'2012-07-23'
p6911
sba(iyelp_data_provider
YelpReview
p6912
(dp6913
g14
S'3.0'
p6914
sg16
S'2012-08-24'
p6915
sba(iyelp_data_provider
YelpReview
p6916
(dp6917
g14
S'5.0'
p6918
sg16
S'2012-08-07'
p6919
sba(iyelp_data_provider
YelpReview
p6920
(dp6921
g14
S'4.0'
p6922
sg16
S'2012-03-23'
p6923
sba(iyelp_data_provider
YelpReview
p6924
(dp6925
g14
S'5.0'
p6926
sg16
S'2012-03-09'
p6927
sba(iyelp_data_provider
YelpReview
p6928
(dp6929
g14
S'4.0'
p6930
sg16
S'2012-01-28'
p6931
sba(iyelp_data_provider
YelpReview
p6932
(dp6933
g14
S'5.0'
p6934
sg16
S'2012-08-20'
p6935
sba(iyelp_data_provider
YelpReview
p6936
(dp6937
g14
S'4.0'
p6938
sg16
S'2012-07-26'
p6939
sba(iyelp_data_provider
YelpReview
p6940
(dp6941
g14
S'4.0'
p6942
sg16
S'2012-05-17'
p6943
sba(iyelp_data_provider
YelpReview
p6944
(dp6945
g14
S'4.0'
p6946
sg16
S'2012-06-22'
p6947
sba(iyelp_data_provider
YelpReview
p6948
(dp6949
g14
S'4.0'
p6950
sg16
S'2012-09-25'
p6951
sba(iyelp_data_provider
YelpReview
p6952
(dp6953
g14
S'3.0'
p6954
sg16
S'2012-03-17'
p6955
sba(iyelp_data_provider
YelpReview
p6956
(dp6957
g14
S'4.0'
p6958
sg16
S'2012-06-26'
p6959
sba(iyelp_data_provider
YelpReview
p6960
(dp6961
g14
S'4.0'
p6962
sg16
S'2012-06-12'
p6963
sba(iyelp_data_provider
YelpReview
p6964
(dp6965
g14
S'4.0'
p6966
sg16
S'2012-05-07'
p6967
sba(iyelp_data_provider
YelpReview
p6968
(dp6969
g14
S'4.0'
p6970
sg16
S'2012-06-05'
p6971
sba(iyelp_data_provider
YelpReview
p6972
(dp6973
g14
S'4.0'
p6974
sg16
S'2012-06-26'
p6975
sba(iyelp_data_provider
YelpReview
p6976
(dp6977
g14
S'4.0'
p6978
sg16
S'2012-07-11'
p6979
sba(iyelp_data_provider
YelpReview
p6980
(dp6981
g14
S'4.0'
p6982
sg16
S'2012-04-15'
p6983
sba(iyelp_data_provider
YelpReview
p6984
(dp6985
g14
S'4.0'
p6986
sg16
S'2012-07-02'
p6987
sba(iyelp_data_provider
YelpReview
p6988
(dp6989
g14
S'4.0'
p6990
sg16
S'2012-09-21'
p6991
sba(iyelp_data_provider
YelpReview
p6992
(dp6993
g14
S'5.0'
p6994
sg16
S'2012-02-08'
p6995
sba(iyelp_data_provider
YelpReview
p6996
(dp6997
g14
S'5.0'
p6998
sg16
S'2012-03-16'
p6999
sba(iyelp_data_provider
YelpReview
p7000
(dp7001
g14
S'5.0'
p7002
sg16
S'2012-04-09'
p7003
sba(iyelp_data_provider
YelpReview
p7004
(dp7005
g14
S'4.0'
p7006
sg16
S'2012-09-25'
p7007
sba(iyelp_data_provider
YelpReview
p7008
(dp7009
g14
S'2.0'
p7010
sg16
S'2012-04-28'
p7011
sba(iyelp_data_provider
YelpReview
p7012
(dp7013
g14
S'3.0'
p7014
sg16
S'2012-07-03'
p7015
sba(iyelp_data_provider
YelpReview
p7016
(dp7017
g14
S'4.0'
p7018
sg16
S'2012-02-08'
p7019
sba(iyelp_data_provider
YelpReview
p7020
(dp7021
g14
S'4.0'
p7022
sg16
S'2012-02-22'
p7023
sba(iyelp_data_provider
YelpReview
p7024
(dp7025
g14
S'5.0'
p7026
sg16
S'2012-04-04'
p7027
sba(iyelp_data_provider
YelpReview
p7028
(dp7029
g14
S'5.0'
p7030
sg16
S'2012-01-28'
p7031
sba(iyelp_data_provider
YelpReview
p7032
(dp7033
g14
S'4.0'
p7034
sg16
S'2012-06-03'
p7035
sba(iyelp_data_provider
YelpReview
p7036
(dp7037
g14
S'3.0'
p7038
sg16
S'2012-05-11'
p7039
sba(iyelp_data_provider
YelpReview
p7040
(dp7041
g14
S'4.0'
p7042
sg16
S'2012-03-25'
p7043
sba(iyelp_data_provider
YelpReview
p7044
(dp7045
g14
S'4.0'
p7046
sg16
S'2012-05-03'
p7047
sba(iyelp_data_provider
YelpReview
p7048
(dp7049
g14
S'5.0'
p7050
sg16
S'2012-04-11'
p7051
sba(iyelp_data_provider
YelpReview
p7052
(dp7053
g14
S'3.0'
p7054
sg16
S'2012-06-03'
p7055
sba(iyelp_data_provider
YelpReview
p7056
(dp7057
g14
S'4.0'
p7058
sg16
S'2012-03-30'
p7059
sba(iyelp_data_provider
YelpReview
p7060
(dp7061
g14
S'4.0'
p7062
sg16
S'2012-04-04'
p7063
sba(iyelp_data_provider
YelpReview
p7064
(dp7065
g14
S'3.0'
p7066
sg16
S'2012-05-03'
p7067
sba(iyelp_data_provider
YelpReview
p7068
(dp7069
g14
S'2.0'
p7070
sg16
S'2012-03-16'
p7071
sba(iyelp_data_provider
YelpReview
p7072
(dp7073
g14
S'4.0'
p7074
sg16
S'2012-04-06'
p7075
sba(iyelp_data_provider
YelpReview
p7076
(dp7077
g14
S'5.0'
p7078
sg16
S'2012-04-24'
p7079
sba(iyelp_data_provider
YelpReview
p7080
(dp7081
g14
S'4.0'
p7082
sg16
S'2012-02-29'
p7083
sba(iyelp_data_provider
YelpReview
p7084
(dp7085
g14
S'5.0'
p7086
sg16
S'2012-08-22'
p7087
sba(iyelp_data_provider
YelpReview
p7088
(dp7089
g14
S'5.0'
p7090
sg16
S'2011-12-19'
p7091
sba(iyelp_data_provider
YelpReview
p7092
(dp7093
g14
S'5.0'
p7094
sg16
S'2012-03-26'
p7095
sba(iyelp_data_provider
YelpReview
p7096
(dp7097
g14
S'4.0'
p7098
sg16
S'2012-04-14'
p7099
sba(iyelp_data_provider
YelpReview
p7100
(dp7101
g14
S'4.0'
p7102
sg16
S'2012-03-19'
p7103
sba(iyelp_data_provider
YelpReview
p7104
(dp7105
g14
S'3.0'
p7106
sg16
S'2012-04-11'
p7107
sba(iyelp_data_provider
YelpReview
p7108
(dp7109
g14
S'1.0'
p7110
sg16
S'2012-04-03'
p7111
sba(iyelp_data_provider
YelpReview
p7112
(dp7113
g14
S'3.0'
p7114
sg16
S'2012-03-09'
p7115
sba(iyelp_data_provider
YelpReview
p7116
(dp7117
g14
S'4.0'
p7118
sg16
S'2012-05-06'
p7119
sba(iyelp_data_provider
YelpReview
p7120
(dp7121
g14
S'1.0'
p7122
sg16
S'2012-07-05'
p7123
sba(iyelp_data_provider
YelpReview
p7124
(dp7125
g14
S'4.0'
p7126
sg16
S'2012-06-26'
p7127
sba(iyelp_data_provider
YelpReview
p7128
(dp7129
g14
S'4.0'
p7130
sg16
S'2012-05-31'
p7131
sba(iyelp_data_provider
YelpReview
p7132
(dp7133
g14
S'4.0'
p7134
sg16
S'2012-05-07'
p7135
sba(iyelp_data_provider
YelpReview
p7136
(dp7137
g14
S'5.0'
p7138
sg16
S'2012-04-15'
p7139
sba(iyelp_data_provider
YelpReview
p7140
(dp7141
g14
S'3.0'
p7142
sg16
S'2012-01-23'
p7143
sba(iyelp_data_provider
YelpReview
p7144
(dp7145
g14
S'5.0'
p7146
sg16
S'2012-01-16'
p7147
sba(iyelp_data_provider
YelpReview
p7148
(dp7149
g14
S'5.0'
p7150
sg16
S'2012-04-28'
p7151
sba(iyelp_data_provider
YelpReview
p7152
(dp7153
g14
S'2.0'
p7154
sg16
S'2012-02-08'
p7155
sbasg1850
I01
sg1851
F40.7614689
sg2051
S'$$'
p7156
sg1852
VoLA02lMIfgvbYquvXzkARw
p7157
sba.