(lp0
(iyelp_data_provider
YelpBusiness
p1
(dp2
S'review_count'
p3
I38
sS'name'
p4
VFlowers By Richard
p5
sS'url'
p6
Vhttp://www.yelp.com/biz/flowers-by-richard-new-york
p7
sS'avg_rating'
p8
F4.5
sS'longitude'
p9
F-73.9856558
sS'reviews'
p10
(lp11
(iyelp_data_provider
YelpReview
p12
(dp13
S'rating'
p14
S'4.5'
p15
sS'pub_date'
p16
S'2012-09-28'
p17
sba(iyelp_data_provider
YelpReview
p18
(dp19
g14
S'5.0'
p20
sg16
S'2012-06-22'
p21
sba(iyelp_data_provider
YelpReview
p22
(dp23
g14
S'5.0'
p24
sg16
S'2011-07-10'
p25
sba(iyelp_data_provider
YelpReview
p26
(dp27
g14
S'2.0'
p28
sg16
S'2011-06-01'
p29
sba(iyelp_data_provider
YelpReview
p30
(dp31
g14
S'4.0'
p32
sg16
S'2012-05-16'
p33
sba(iyelp_data_provider
YelpReview
p34
(dp35
g14
S'5.0'
p36
sg16
S'2011-02-01'
p37
sba(iyelp_data_provider
YelpReview
p38
(dp39
g14
S'5.0'
p40
sg16
S'2009-03-09'
p41
sba(iyelp_data_provider
YelpReview
p42
(dp43
g14
S'5.0'
p44
sg16
S'2008-10-03'
p45
sba(iyelp_data_provider
YelpReview
p46
(dp47
g14
S'5.0'
p48
sg16
S'2010-08-04'
p49
sba(iyelp_data_provider
YelpReview
p50
(dp51
g14
S'5.0'
p52
sg16
S'2010-07-20'
p53
sba(iyelp_data_provider
YelpReview
p54
(dp55
g14
S'4.0'
p56
sg16
S'2010-09-25'
p57
sba(iyelp_data_provider
YelpReview
p58
(dp59
g14
S'5.0'
p60
sg16
S'2010-02-10'
p61
sba(iyelp_data_provider
YelpReview
p62
(dp63
g14
S'4.0'
p64
sg16
S'2010-10-25'
p65
sba(iyelp_data_provider
YelpReview
p66
(dp67
g14
S'5.0'
p68
sg16
S'2011-06-03'
p69
sba(iyelp_data_provider
YelpReview
p70
(dp71
g14
S'5.0'
p72
sg16
S'2011-09-02'
p73
sba(iyelp_data_provider
YelpReview
p74
(dp75
g14
S'5.0'
p76
sg16
S'2011-04-18'
p77
sba(iyelp_data_provider
YelpReview
p78
(dp79
g14
S'5.0'
p80
sg16
S'2011-07-31'
p81
sba(iyelp_data_provider
YelpReview
p82
(dp83
g14
S'5.0'
p84
sg16
S'2009-10-14'
p85
sba(iyelp_data_provider
YelpReview
p86
(dp87
g14
S'5.0'
p88
sg16
S'2010-07-28'
p89
sba(iyelp_data_provider
YelpReview
p90
(dp91
g14
S'4.0'
p92
sg16
S'2009-03-05'
p93
sba(iyelp_data_provider
YelpReview
p94
(dp95
g14
S'5.0'
p96
sg16
S'2012-02-14'
p97
sba(iyelp_data_provider
YelpReview
p98
(dp99
g14
S'5.0'
p100
sg16
S'2011-03-23'
p101
sba(iyelp_data_provider
YelpReview
p102
(dp103
g14
S'5.0'
p104
sg16
S'2010-03-16'
p105
sba(iyelp_data_provider
YelpReview
p106
(dp107
g14
S'5.0'
p108
sg16
S'2011-04-20'
p109
sba(iyelp_data_provider
YelpReview
p110
(dp111
g14
S'5.0'
p112
sg16
S'2011-10-25'
p113
sba(iyelp_data_provider
YelpReview
p114
(dp115
g14
S'5.0'
p116
sg16
S'2010-03-18'
p117
sba(iyelp_data_provider
YelpReview
p118
(dp119
g14
S'5.0'
p120
sg16
S'2010-03-19'
p121
sba(iyelp_data_provider
YelpReview
p122
(dp123
g14
S'5.0'
p124
sg16
S'2010-05-27'
p125
sba(iyelp_data_provider
YelpReview
p126
(dp127
g14
S'5.0'
p128
sg16
S'2010-11-24'
p129
sba(iyelp_data_provider
YelpReview
p130
(dp131
g14
S'5.0'
p132
sg16
S'2011-11-25'
p133
sba(iyelp_data_provider
YelpReview
p134
(dp135
g14
S'5.0'
p136
sg16
S'2012-02-10'
p137
sba(iyelp_data_provider
YelpReview
p138
(dp139
g14
S'2.0'
p140
sg16
S'2010-08-30'
p141
sba(iyelp_data_provider
YelpReview
p142
(dp143
g14
S'2.0'
p144
sg16
S'2011-04-15'
p145
sba(iyelp_data_provider
YelpReview
p146
(dp147
g14
S'5.0'
p148
sg16
S'2010-12-16'
p149
sba(iyelp_data_provider
YelpReview
p150
(dp151
g14
S'5.0'
p152
sg16
S'2009-10-29'
p153
sba(iyelp_data_provider
YelpReview
p154
(dp155
g14
S'5.0'
p156
sg16
S'2010-06-22'
p157
sba(iyelp_data_provider
YelpReview
p158
(dp159
g14
S'5.0'
p160
sg16
S'2008-09-30'
p161
sba(iyelp_data_provider
YelpReview
p162
(dp163
g14
S'5.0'
p164
sg16
S'2010-11-09'
p165
sbasS'has_extra_content'
p166
I01
sS'latitude'
p167
F40.7644905
sS'price_range'
p168
S'$$'
p169
sS'id'
p170
V3_zjNWQyroacAIVrTL33Cg
p171
sba(iyelp_data_provider
YelpBusiness
p172
(dp173
g3
I9
sg4
VScott's Flowers NYC
p174
sg6
Vhttp://www.yelp.com/biz/scotts-flowers-nyc-new-york
p175
sg8
F4.5
sg9
F-73.9842882
sg10
(lp176
(iyelp_data_provider
YelpReview
p177
(dp178
g14
S'4.5'
p179
sg16
S'2012-08-09'
p180
sba(iyelp_data_provider
YelpReview
p181
(dp182
g14
S'5.0'
p183
sg16
S'2012-07-02'
p184
sba(iyelp_data_provider
YelpReview
p185
(dp186
g14
S'5.0'
p187
sg16
S'2010-06-30'
p188
sba(iyelp_data_provider
YelpReview
p189
(dp190
g14
S'5.0'
p191
sg16
S'2011-10-05'
p192
sba(iyelp_data_provider
YelpReview
p193
(dp194
g14
S'4.0'
p195
sg16
S'2007-12-11'
p196
sba(iyelp_data_provider
YelpReview
p197
(dp198
g14
S'5.0'
p199
sg16
S'2008-07-23'
p200
sba(iyelp_data_provider
YelpReview
p201
(dp202
g14
S'5.0'
p203
sg16
S'2012-02-13'
p204
sba(iyelp_data_provider
YelpReview
p205
(dp206
g14
S'1.0'
p207
sg16
S'2009-10-27'
p208
sba(iyelp_data_provider
YelpReview
p209
(dp210
g14
S'5.0'
p211
sg16
S'2011-08-04'
p212
sbasg166
I01
sg167
F40.7509583
sg168
S'$$'
p213
sg170
VJ45M4ZLsVhrB1EAQNeEWwA
p214
sba.