(lp0
(iyelp_data_provider
YelpBusiness
p1
(dp2
S'review_count'
p3
I460
sS'name'
p4
VCasellula
p5
sS'url'
p6
Vhttp://www.yelp.com/biz/casellula-new-york
p7
sS'avg_rating'
p8
F4.0
sS'longitude'
p9
F-73.9883758
sS'reviews'
p10
(lp11
(iyelp_data_provider
YelpReview
p12
(dp13
S'rating'
p14
S'4.0'
p15
sS'pub_date'
p16
S'2012-12-09'
p17
sba(iyelp_data_provider
YelpReview
p18
(dp19
g14
S'5.0'
p20
sg16
S'2012-11-27'
p21
sba(iyelp_data_provider
YelpReview
p22
(dp23
g14
S'4.0'
p24
sg16
S'2012-11-10'
p25
sba(iyelp_data_provider
YelpReview
p26
(dp27
g14
S'5.0'
p28
sg16
S'2012-10-29'
p29
sba(iyelp_data_provider
YelpReview
p30
(dp31
g14
S'3.0'
p32
sg16
S'2012-10-20'
p33
sba(iyelp_data_provider
YelpReview
p34
(dp35
g14
S'4.0'
p36
sg16
S'2012-10-14'
p37
sba(iyelp_data_provider
YelpReview
p38
(dp39
g14
S'5.0'
p40
sg16
S'2012-09-22'
p41
sba(iyelp_data_provider
YelpReview
p42
(dp43
g14
S'3.0'
p44
sg16
S'2012-11-20'
p45
sba(iyelp_data_provider
YelpReview
p46
(dp47
g14
S'5.0'
p48
sg16
S'2012-10-04'
p49
sba(iyelp_data_provider
YelpReview
p50
(dp51
g14
S'4.0'
p52
sg16
S'2012-11-05'
p53
sba(iyelp_data_provider
YelpReview
p54
(dp55
g14
S'4.0'
p56
sg16
S'2012-09-25'
p57
sba(iyelp_data_provider
YelpReview
p58
(dp59
g14
S'5.0'
p60
sg16
S'2012-10-01'
p61
sba(iyelp_data_provider
YelpReview
p62
(dp63
g14
S'4.0'
p64
sg16
S'2012-11-11'
p65
sba(iyelp_data_provider
YelpReview
p66
(dp67
g14
S'5.0'
p68
sg16
S'2012-11-03'
p69
sba(iyelp_data_provider
YelpReview
p70
(dp71
g14
S'4.0'
p72
sg16
S'2012-09-02'
p73
sba(iyelp_data_provider
YelpReview
p74
(dp75
g14
S'4.0'
p76
sg16
S'2012-07-15'
p77
sba(iyelp_data_provider
YelpReview
p78
(dp79
g14
S'3.0'
p80
sg16
S'2012-07-18'
p81
sba(iyelp_data_provider
YelpReview
p82
(dp83
g14
S'5.0'
p84
sg16
S'2012-10-03'
p85
sba(iyelp_data_provider
YelpReview
p86
(dp87
g14
S'5.0'
p88
sg16
S'2012-09-13'
p89
sba(iyelp_data_provider
YelpReview
p90
(dp91
g14
S'2.0'
p92
sg16
S'2012-07-10'
p93
sba(iyelp_data_provider
YelpReview
p94
(dp95
g14
S'4.0'
p96
sg16
S'2012-07-08'
p97
sba(iyelp_data_provider
YelpReview
p98
(dp99
g14
S'5.0'
p100
sg16
S'2012-06-04'
p101
sba(iyelp_data_provider
YelpReview
p102
(dp103
g14
S'2.0'
p104
sg16
S'2012-07-05'
p105
sba(iyelp_data_provider
YelpReview
p106
(dp107
g14
S'5.0'
p108
sg16
S'2012-06-02'
p109
sba(iyelp_data_provider
YelpReview
p110
(dp111
g14
S'3.0'
p112
sg16
S'2012-08-30'
p113
sba(iyelp_data_provider
YelpReview
p114
(dp115
g14
S'3.0'
p116
sg16
S'2012-06-24'
p117
sba(iyelp_data_provider
YelpReview
p118
(dp119
g14
S'4.0'
p120
sg16
S'2012-04-16'
p121
sba(iyelp_data_provider
YelpReview
p122
(dp123
g14
S'5.0'
p124
sg16
S'2012-11-17'
p125
sba(iyelp_data_provider
YelpReview
p126
(dp127
g14
S'5.0'
p128
sg16
S'2012-03-31'
p129
sba(iyelp_data_provider
YelpReview
p130
(dp131
g14
S'4.0'
p132
sg16
S'2012-03-25'
p133
sba(iyelp_data_provider
YelpReview
p134
(dp135
g14
S'5.0'
p136
sg16
S'2012-06-22'
p137
sba(iyelp_data_provider
YelpReview
p138
(dp139
g14
S'4.0'
p140
sg16
S'2012-02-09'
p141
sba(iyelp_data_provider
YelpReview
p142
(dp143
g14
S'4.0'
p144
sg16
S'2012-03-24'
p145
sba(iyelp_data_provider
YelpReview
p146
(dp147
g14
S'5.0'
p148
sg16
S'2012-03-15'
p149
sba(iyelp_data_provider
YelpReview
p150
(dp151
g14
S'5.0'
p152
sg16
S'2012-01-31'
p153
sba(iyelp_data_provider
YelpReview
p154
(dp155
g14
S'5.0'
p156
sg16
S'2012-04-12'
p157
sba(iyelp_data_provider
YelpReview
p158
(dp159
g14
S'4.0'
p160
sg16
S'2012-06-15'
p161
sba(iyelp_data_provider
YelpReview
p162
(dp163
g14
S'5.0'
p164
sg16
S'2012-06-12'
p165
sba(iyelp_data_provider
YelpReview
p166
(dp167
g14
S'3.0'
p168
sg16
S'2012-09-02'
p169
sba(iyelp_data_provider
YelpReview
p170
(dp171
g14
S'5.0'
p172
sg16
S'2012-04-01'
p173
sba(iyelp_data_provider
YelpReview
p174
(dp175
g14
S'4.0'
p176
sg16
S'2012-09-14'
p177
sba(iyelp_data_provider
YelpReview
p178
(dp179
g14
S'5.0'
p180
sg16
S'2012-01-24'
p181
sba(iyelp_data_provider
YelpReview
p182
(dp183
g14
S'5.0'
p184
sg16
S'2012-05-31'
p185
sba(iyelp_data_provider
YelpReview
p186
(dp187
g14
S'4.0'
p188
sg16
S'2012-02-28'
p189
sba(iyelp_data_provider
YelpReview
p190
(dp191
g14
S'5.0'
p192
sg16
S'2012-02-16'
p193
sba(iyelp_data_provider
YelpReview
p194
(dp195
g14
S'5.0'
p196
sg16
S'2012-08-27'
p197
sba(iyelp_data_provider
YelpReview
p198
(dp199
g14
S'5.0'
p200
sg16
S'2012-04-19'
p201
sba(iyelp_data_provider
YelpReview
p202
(dp203
g14
S'4.0'
p204
sg16
S'2012-01-31'
p205
sba(iyelp_data_provider
YelpReview
p206
(dp207
g14
S'4.0'
p208
sg16
S'2012-02-21'
p209
sba(iyelp_data_provider
YelpReview
p210
(dp211
g14
S'5.0'
p212
sg16
S'2011-12-17'
p213
sba(iyelp_data_provider
YelpReview
p214
(dp215
g14
S'4.0'
p216
sg16
S'2012-02-12'
p217
sba(iyelp_data_provider
YelpReview
p218
(dp219
g14
S'5.0'
p220
sg16
S'2011-12-09'
p221
sba(iyelp_data_provider
YelpReview
p222
(dp223
g14
S'5.0'
p224
sg16
S'2012-04-06'
p225
sba(iyelp_data_provider
YelpReview
p226
(dp227
g14
S'5.0'
p228
sg16
S'2012-03-05'
p229
sba(iyelp_data_provider
YelpReview
p230
(dp231
g14
S'3.0'
p232
sg16
S'2012-01-15'
p233
sba(iyelp_data_provider
YelpReview
p234
(dp235
g14
S'5.0'
p236
sg16
S'2012-01-15'
p237
sba(iyelp_data_provider
YelpReview
p238
(dp239
g14
S'5.0'
p240
sg16
S'2012-01-19'
p241
sba(iyelp_data_provider
YelpReview
p242
(dp243
g14
S'5.0'
p244
sg16
S'2011-11-07'
p245
sba(iyelp_data_provider
YelpReview
p246
(dp247
g14
S'5.0'
p248
sg16
S'2011-11-29'
p249
sba(iyelp_data_provider
YelpReview
p250
(dp251
g14
S'4.0'
p252
sg16
S'2012-07-25'
p253
sba(iyelp_data_provider
YelpReview
p254
(dp255
g14
S'4.0'
p256
sg16
S'2012-01-30'
p257
sba(iyelp_data_provider
YelpReview
p258
(dp259
g14
S'4.0'
p260
sg16
S'2012-01-23'
p261
sba(iyelp_data_provider
YelpReview
p262
(dp263
g14
S'5.0'
p264
sg16
S'2012-08-25'
p265
sba(iyelp_data_provider
YelpReview
p266
(dp267
g14
S'5.0'
p268
sg16
S'2012-03-12'
p269
sba(iyelp_data_provider
YelpReview
p270
(dp271
g14
S'5.0'
p272
sg16
S'2011-10-10'
p273
sba(iyelp_data_provider
YelpReview
p274
(dp275
g14
S'5.0'
p276
sg16
S'2012-02-08'
p277
sba(iyelp_data_provider
YelpReview
p278
(dp279
g14
S'4.0'
p280
sg16
S'2012-02-02'
p281
sba(iyelp_data_provider
YelpReview
p282
(dp283
g14
S'5.0'
p284
sg16
S'2011-11-23'
p285
sba(iyelp_data_provider
YelpReview
p286
(dp287
g14
S'4.0'
p288
sg16
S'2011-12-11'
p289
sba(iyelp_data_provider
YelpReview
p290
(dp291
g14
S'3.0'
p292
sg16
S'2011-12-28'
p293
sba(iyelp_data_provider
YelpReview
p294
(dp295
g14
S'5.0'
p296
sg16
S'2012-07-14'
p297
sba(iyelp_data_provider
YelpReview
p298
(dp299
g14
S'3.0'
p300
sg16
S'2012-03-08'
p301
sba(iyelp_data_provider
YelpReview
p302
(dp303
g14
S'5.0'
p304
sg16
S'2012-01-28'
p305
sba(iyelp_data_provider
YelpReview
p306
(dp307
g14
S'4.0'
p308
sg16
S'2012-08-09'
p309
sba(iyelp_data_provider
YelpReview
p310
(dp311
g14
S'5.0'
p312
sg16
S'2012-01-10'
p313
sba(iyelp_data_provider
YelpReview
p314
(dp315
g14
S'5.0'
p316
sg16
S'2012-06-28'
p317
sba(iyelp_data_provider
YelpReview
p318
(dp319
g14
S'5.0'
p320
sg16
S'2011-08-06'
p321
sba(iyelp_data_provider
YelpReview
p322
(dp323
g14
S'5.0'
p324
sg16
S'2012-02-26'
p325
sba(iyelp_data_provider
YelpReview
p326
(dp327
g14
S'5.0'
p328
sg16
S'2011-12-22'
p329
sba(iyelp_data_provider
YelpReview
p330
(dp331
g14
S'5.0'
p332
sg16
S'2011-11-07'
p333
sba(iyelp_data_provider
YelpReview
p334
(dp335
g14
S'4.0'
p336
sg16
S'2011-11-17'
p337
sba(iyelp_data_provider
YelpReview
p338
(dp339
g14
S'5.0'
p340
sg16
S'2012-01-22'
p341
sba(iyelp_data_provider
YelpReview
p342
(dp343
g14
S'4.0'
p344
sg16
S'2011-10-24'
p345
sba(iyelp_data_provider
YelpReview
p346
(dp347
g14
S'4.0'
p348
sg16
S'2011-12-18'
p349
sba(iyelp_data_provider
YelpReview
p350
(dp351
g14
S'5.0'
p352
sg16
S'2011-08-03'
p353
sba(iyelp_data_provider
YelpReview
p354
(dp355
g14
S'4.0'
p356
sg16
S'2011-10-10'
p357
sba(iyelp_data_provider
YelpReview
p358
(dp359
g14
S'4.0'
p360
sg16
S'2011-10-12'
p361
sba(iyelp_data_provider
YelpReview
p362
(dp363
g14
S'2.0'
p364
sg16
S'2012-06-04'
p365
sba(iyelp_data_provider
YelpReview
p366
(dp367
g14
S'4.0'
p368
sg16
S'2011-09-13'
p369
sba(iyelp_data_provider
YelpReview
p370
(dp371
g14
S'5.0'
p372
sg16
S'2011-07-24'
p373
sba(iyelp_data_provider
YelpReview
p374
(dp375
g14
S'4.0'
p376
sg16
S'2011-10-03'
p377
sba(iyelp_data_provider
YelpReview
p378
(dp379
g14
S'4.0'
p380
sg16
S'2011-10-24'
p381
sba(iyelp_data_provider
YelpReview
p382
(dp383
g14
S'4.0'
p384
sg16
S'2011-10-23'
p385
sba(iyelp_data_provider
YelpReview
p386
(dp387
g14
S'3.0'
p388
sg16
S'2011-10-19'
p389
sba(iyelp_data_provider
YelpReview
p390
(dp391
g14
S'4.0'
p392
sg16
S'2011-06-14'
p393
sba(iyelp_data_provider
YelpReview
p394
(dp395
g14
S'5.0'
p396
sg16
S'2011-04-24'
p397
sba(iyelp_data_provider
YelpReview
p398
(dp399
g14
S'5.0'
p400
sg16
S'2011-12-27'
p401
sba(iyelp_data_provider
YelpReview
p402
(dp403
g14
S'5.0'
p404
sg16
S'2011-06-22'
p405
sba(iyelp_data_provider
YelpReview
p406
(dp407
g14
S'4.0'
p408
sg16
S'2012-04-08'
p409
sba(iyelp_data_provider
YelpReview
p410
(dp411
g14
S'5.0'
p412
sg16
S'2012-05-19'
p413
sba(iyelp_data_provider
YelpReview
p414
(dp415
g14
S'4.0'
p416
sg16
S'2011-11-03'
p417
sba(iyelp_data_provider
YelpReview
p418
(dp419
g14
S'3.0'
p420
sg16
S'2011-09-01'
p421
sba(iyelp_data_provider
YelpReview
p422
(dp423
g14
S'2.0'
p424
sg16
S'2011-05-12'
p425
sba(iyelp_data_provider
YelpReview
p426
(dp427
g14
S'4.0'
p428
sg16
S'2011-03-09'
p429
sba(iyelp_data_provider
YelpReview
p430
(dp431
g14
S'4.0'
p432
sg16
S'2012-06-27'
p433
sba(iyelp_data_provider
YelpReview
p434
(dp435
g14
S'5.0'
p436
sg16
S'2012-02-09'
p437
sba(iyelp_data_provider
YelpReview
p438
(dp439
g14
S'5.0'
p440
sg16
S'2012-07-19'
p441
sba(iyelp_data_provider
YelpReview
p442
(dp443
g14
S'5.0'
p444
sg16
S'2011-03-05'
p445
sba(iyelp_data_provider
YelpReview
p446
(dp447
g14
S'3.0'
p448
sg16
S'2011-11-14'
p449
sba(iyelp_data_provider
YelpReview
p450
(dp451
g14
S'3.0'
p452
sg16
S'2012-05-30'
p453
sba(iyelp_data_provider
YelpReview
p454
(dp455
g14
S'5.0'
p456
sg16
S'2012-09-12'
p457
sba(iyelp_data_provider
YelpReview
p458
(dp459
g14
S'4.0'
p460
sg16
S'2012-02-27'
p461
sba(iyelp_data_provider
YelpReview
p462
(dp463
g14
S'5.0'
p464
sg16
S'2012-04-02'
p465
sba(iyelp_data_provider
YelpReview
p466
(dp467
g14
S'4.0'
p468
sg16
S'2011-03-25'
p469
sba(iyelp_data_provider
YelpReview
p470
(dp471
g14
S'3.0'
p472
sg16
S'2011-05-21'
p473
sba(iyelp_data_provider
YelpReview
p474
(dp475
g14
S'2.0'
p476
sg16
S'2011-09-09'
p477
sba(iyelp_data_provider
YelpReview
p478
(dp479
g14
S'4.0'
p480
sg16
S'2011-02-18'
p481
sba(iyelp_data_provider
YelpReview
p482
(dp483
g14
S'5.0'
p484
sg16
S'2012-06-03'
p485
sba(iyelp_data_provider
YelpReview
p486
(dp487
g14
S'5.0'
p488
sg16
S'2011-02-23'
p489
sba(iyelp_data_provider
YelpReview
p490
(dp491
g14
S'4.0'
p492
sg16
S'2011-02-27'
p493
sba(iyelp_data_provider
YelpReview
p494
(dp495
g14
S'4.0'
p496
sg16
S'2012-09-05'
p497
sba(iyelp_data_provider
YelpReview
p498
(dp499
g14
S'5.0'
p500
sg16
S'2010-07-19'
p501
sba(iyelp_data_provider
YelpReview
p502
(dp503
g14
S'4.0'
p504
sg16
S'2010-05-05'
p505
sba(iyelp_data_provider
YelpReview
p506
(dp507
g14
S'5.0'
p508
sg16
S'2009-04-27'
p509
sba(iyelp_data_provider
YelpReview
p510
(dp511
g14
S'5.0'
p512
sg16
S'2009-01-21'
p513
sba(iyelp_data_provider
YelpReview
p514
(dp515
g14
S'5.0'
p516
sg16
S'2009-09-25'
p517
sba(iyelp_data_provider
YelpReview
p518
(dp519
g14
S'5.0'
p520
sg16
S'2007-11-03'
p521
sba(iyelp_data_provider
YelpReview
p522
(dp523
g14
S'5.0'
p524
sg16
S'2011-02-12'
p525
sba(iyelp_data_provider
YelpReview
p526
(dp527
g14
S'3.0'
p528
sg16
S'2007-12-20'
p529
sba(iyelp_data_provider
YelpReview
p530
(dp531
g14
S'5.0'
p532
sg16
S'2012-05-17'
p533
sba(iyelp_data_provider
YelpReview
p534
(dp535
g14
S'2.0'
p536
sg16
S'2009-06-19'
p537
sba(iyelp_data_provider
YelpReview
p538
(dp539
g14
S'5.0'
p540
sg16
S'2012-04-08'
p541
sba(iyelp_data_provider
YelpReview
p542
(dp543
g14
S'4.0'
p544
sg16
S'2010-10-22'
p545
sba(iyelp_data_provider
YelpReview
p546
(dp547
g14
S'5.0'
p548
sg16
S'2010-06-30'
p549
sba(iyelp_data_provider
YelpReview
p550
(dp551
g14
S'4.0'
p552
sg16
S'2009-11-22'
p553
sba(iyelp_data_provider
YelpReview
p554
(dp555
g14
S'4.0'
p556
sg16
S'2009-06-26'
p557
sba(iyelp_data_provider
YelpReview
p558
(dp559
g14
S'5.0'
p560
sg16
S'2012-08-20'
p561
sba(iyelp_data_provider
YelpReview
p562
(dp563
g14
S'5.0'
p564
sg16
S'2007-07-03'
p565
sba(iyelp_data_provider
YelpReview
p566
(dp567
g14
S'5.0'
p568
sg16
S'2009-02-09'
p569
sba(iyelp_data_provider
YelpReview
p570
(dp571
g14
S'5.0'
p572
sg16
S'2012-05-11'
p573
sba(iyelp_data_provider
YelpReview
p574
(dp575
g14
S'5.0'
p576
sg16
S'2009-10-09'
p577
sba(iyelp_data_provider
YelpReview
p578
(dp579
g14
S'5.0'
p580
sg16
S'2008-02-14'
p581
sba(iyelp_data_provider
YelpReview
p582
(dp583
g14
S'4.0'
p584
sg16
S'2010-09-21'
p585
sba(iyelp_data_provider
YelpReview
p586
(dp587
g14
S'4.0'
p588
sg16
S'2010-10-10'
p589
sba(iyelp_data_provider
YelpReview
p590
(dp591
g14
S'4.0'
p592
sg16
S'2009-05-07'
p593
sba(iyelp_data_provider
YelpReview
p594
(dp595
g14
S'4.0'
p596
sg16
S'2012-02-29'
p597
sba(iyelp_data_provider
YelpReview
p598
(dp599
g14
S'4.0'
p600
sg16
S'2008-01-21'
p601
sba(iyelp_data_provider
YelpReview
p602
(dp603
g14
S'5.0'
p604
sg16
S'2008-02-09'
p605
sba(iyelp_data_provider
YelpReview
p606
(dp607
g14
S'5.0'
p608
sg16
S'2008-05-23'
p609
sba(iyelp_data_provider
YelpReview
p610
(dp611
g14
S'5.0'
p612
sg16
S'2011-01-22'
p613
sba(iyelp_data_provider
YelpReview
p614
(dp615
g14
S'5.0'
p616
sg16
S'2012-03-28'
p617
sba(iyelp_data_provider
YelpReview
p618
(dp619
g14
S'4.0'
p620
sg16
S'2010-08-01'
p621
sba(iyelp_data_provider
YelpReview
p622
(dp623
g14
S'3.0'
p624
sg16
S'2011-05-09'
p625
sba(iyelp_data_provider
YelpReview
p626
(dp627
g14
S'4.0'
p628
sg16
S'2010-11-23'
p629
sba(iyelp_data_provider
YelpReview
p630
(dp631
g14
S'3.0'
p632
sg16
S'2011-08-18'
p633
sba(iyelp_data_provider
YelpReview
p634
(dp635
g14
S'4.0'
p636
sg16
S'2008-11-18'
p637
sba(iyelp_data_provider
YelpReview
p638
(dp639
g14
S'5.0'
p640
sg16
S'2008-01-05'
p641
sba(iyelp_data_provider
YelpReview
p642
(dp643
g14
S'5.0'
p644
sg16
S'2009-09-29'
p645
sba(iyelp_data_provider
YelpReview
p646
(dp647
g14
S'5.0'
p648
sg16
S'2009-10-11'
p649
sba(iyelp_data_provider
YelpReview
p650
(dp651
g14
S'5.0'
p652
sg16
S'2009-03-24'
p653
sba(iyelp_data_provider
YelpReview
p654
(dp655
g14
S'4.0'
p656
sg16
S'2009-12-25'
p657
sba(iyelp_data_provider
YelpReview
p658
(dp659
g14
S'4.0'
p660
sg16
S'2009-10-25'
p661
sba(iyelp_data_provider
YelpReview
p662
(dp663
g14
S'4.0'
p664
sg16
S'2011-06-21'
p665
sba(iyelp_data_provider
YelpReview
p666
(dp667
g14
S'5.0'
p668
sg16
S'2011-04-19'
p669
sba(iyelp_data_provider
YelpReview
p670
(dp671
g14
S'3.0'
p672
sg16
S'2010-02-20'
p673
sba(iyelp_data_provider
YelpReview
p674
(dp675
g14
S'4.0'
p676
sg16
S'2012-04-06'
p677
sba(iyelp_data_provider
YelpReview
p678
(dp679
g14
S'4.0'
p680
sg16
S'2009-03-24'
p681
sba(iyelp_data_provider
YelpReview
p682
(dp683
g14
S'4.0'
p684
sg16
S'2008-04-14'
p685
sba(iyelp_data_provider
YelpReview
p686
(dp687
g14
S'4.0'
p688
sg16
S'2011-04-12'
p689
sba(iyelp_data_provider
YelpReview
p690
(dp691
g14
S'5.0'
p692
sg16
S'2008-07-14'
p693
sba(iyelp_data_provider
YelpReview
p694
(dp695
g14
S'4.0'
p696
sg16
S'2010-04-19'
p697
sba(iyelp_data_provider
YelpReview
p698
(dp699
g14
S'5.0'
p700
sg16
S'2010-06-27'
p701
sba(iyelp_data_provider
YelpReview
p702
(dp703
g14
S'5.0'
p704
sg16
S'2012-04-03'
p705
sba(iyelp_data_provider
YelpReview
p706
(dp707
g14
S'4.0'
p708
sg16
S'2008-08-29'
p709
sba(iyelp_data_provider
YelpReview
p710
(dp711
g14
S'3.0'
p712
sg16
S'2009-07-23'
p713
sba(iyelp_data_provider
YelpReview
p714
(dp715
g14
S'5.0'
p716
sg16
S'2009-06-04'
p717
sba(iyelp_data_provider
YelpReview
p718
(dp719
g14
S'4.0'
p720
sg16
S'2009-07-16'
p721
sba(iyelp_data_provider
YelpReview
p722
(dp723
g14
S'5.0'
p724
sg16
S'2009-11-22'
p725
sba(iyelp_data_provider
YelpReview
p726
(dp727
g14
S'5.0'
p728
sg16
S'2011-03-27'
p729
sba(iyelp_data_provider
YelpReview
p730
(dp731
g14
S'3.0'
p732
sg16
S'2010-02-05'
p733
sba(iyelp_data_provider
YelpReview
p734
(dp735
g14
S'4.0'
p736
sg16
S'2010-04-22'
p737
sba(iyelp_data_provider
YelpReview
p738
(dp739
g14
S'4.0'
p740
sg16
S'2011-06-07'
p741
sba(iyelp_data_provider
YelpReview
p742
(dp743
g14
S'4.0'
p744
sg16
S'2012-01-30'
p745
sba(iyelp_data_provider
YelpReview
p746
(dp747
g14
S'4.0'
p748
sg16
S'2009-09-26'
p749
sba(iyelp_data_provider
YelpReview
p750
(dp751
g14
S'5.0'
p752
sg16
S'2007-09-18'
p753
sba(iyelp_data_provider
YelpReview
p754
(dp755
g14
S'4.0'
p756
sg16
S'2007-08-28'
p757
sba(iyelp_data_provider
YelpReview
p758
(dp759
g14
S'5.0'
p760
sg16
S'2008-06-02'
p761
sba(iyelp_data_provider
YelpReview
p762
(dp763
g14
S'5.0'
p764
sg16
S'2010-09-09'
p765
sba(iyelp_data_provider
YelpReview
p766
(dp767
g14
S'4.0'
p768
sg16
S'2011-03-09'
p769
sba(iyelp_data_provider
YelpReview
p770
(dp771
g14
S'5.0'
p772
sg16
S'2012-07-31'
p773
sba(iyelp_data_provider
YelpReview
p774
(dp775
g14
S'4.0'
p776
sg16
S'2008-04-07'
p777
sba(iyelp_data_provider
YelpReview
p778
(dp779
g14
S'4.0'
p780
sg16
S'2011-03-08'
p781
sba(iyelp_data_provider
YelpReview
p782
(dp783
g14
S'4.0'
p784
sg16
S'2008-09-29'
p785
sba(iyelp_data_provider
YelpReview
p786
(dp787
g14
S'4.0'
p788
sg16
S'2010-06-29'
p789
sba(iyelp_data_provider
YelpReview
p790
(dp791
g14
S'5.0'
p792
sg16
S'2011-03-04'
p793
sba(iyelp_data_provider
YelpReview
p794
(dp795
g14
S'3.0'
p796
sg16
S'2008-12-18'
p797
sba(iyelp_data_provider
YelpReview
p798
(dp799
g14
S'5.0'
p800
sg16
S'2009-09-23'
p801
sba(iyelp_data_provider
YelpReview
p802
(dp803
g14
S'4.0'
p804
sg16
S'2010-01-05'
p805
sba(iyelp_data_provider
YelpReview
p806
(dp807
g14
S'4.0'
p808
sg16
S'2011-02-22'
p809
sba(iyelp_data_provider
YelpReview
p810
(dp811
g14
S'5.0'
p812
sg16
S'2009-08-10'
p813
sba(iyelp_data_provider
YelpReview
p814
(dp815
g14
S'4.0'
p816
sg16
S'2010-01-03'
p817
sba(iyelp_data_provider
YelpReview
p818
(dp819
g14
S'4.0'
p820
sg16
S'2010-03-26'
p821
sba(iyelp_data_provider
YelpReview
p822
(dp823
g14
S'3.0'
p824
sg16
S'2011-12-12'
p825
sba(iyelp_data_provider
YelpReview
p826
(dp827
g14
S'5.0'
p828
sg16
S'2008-08-15'
p829
sba(iyelp_data_provider
YelpReview
p830
(dp831
g14
S'4.0'
p832
sg16
S'2009-03-02'
p833
sba(iyelp_data_provider
YelpReview
p834
(dp835
g14
S'4.0'
p836
sg16
S'2008-07-15'
p837
sba(iyelp_data_provider
YelpReview
p838
(dp839
g14
S'5.0'
p840
sg16
S'2008-11-27'
p841
sba(iyelp_data_provider
YelpReview
p842
(dp843
g14
S'4.0'
p844
sg16
S'2009-01-06'
p845
sba(iyelp_data_provider
YelpReview
p846
(dp847
g14
S'4.0'
p848
sg16
S'2009-11-18'
p849
sba(iyelp_data_provider
YelpReview
p850
(dp851
g14
S'4.0'
p852
sg16
S'2011-04-21'
p853
sba(iyelp_data_provider
YelpReview
p854
(dp855
g14
S'5.0'
p856
sg16
S'2010-04-28'
p857
sba(iyelp_data_provider
YelpReview
p858
(dp859
g14
S'4.0'
p860
sg16
S'2010-06-30'
p861
sba(iyelp_data_provider
YelpReview
p862
(dp863
g14
S'4.0'
p864
sg16
S'2012-03-28'
p865
sba(iyelp_data_provider
YelpReview
p866
(dp867
g14
S'3.0'
p868
sg16
S'2012-02-24'
p869
sba(iyelp_data_provider
YelpReview
p870
(dp871
g14
S'4.0'
p872
sg16
S'2010-08-18'
p873
sba(iyelp_data_provider
YelpReview
p874
(dp875
g14
S'4.0'
p876
sg16
S'2011-03-01'
p877
sba(iyelp_data_provider
YelpReview
p878
(dp879
g14
S'4.0'
p880
sg16
S'2010-02-23'
p881
sba(iyelp_data_provider
YelpReview
p882
(dp883
g14
S'4.0'
p884
sg16
S'2010-09-20'
p885
sba(iyelp_data_provider
YelpReview
p886
(dp887
g14
S'4.0'
p888
sg16
S'2009-08-11'
p889
sba(iyelp_data_provider
YelpReview
p890
(dp891
g14
S'5.0'
p892
sg16
S'2012-02-16'
p893
sba(iyelp_data_provider
YelpReview
p894
(dp895
g14
S'5.0'
p896
sg16
S'2009-09-29'
p897
sba(iyelp_data_provider
YelpReview
p898
(dp899
g14
S'3.0'
p900
sg16
S'2010-01-07'
p901
sba(iyelp_data_provider
YelpReview
p902
(dp903
g14
S'5.0'
p904
sg16
S'2010-03-04'
p905
sba(iyelp_data_provider
YelpReview
p906
(dp907
g14
S'5.0'
p908
sg16
S'2011-01-01'
p909
sba(iyelp_data_provider
YelpReview
p910
(dp911
g14
S'4.0'
p912
sg16
S'2012-02-13'
p913
sba(iyelp_data_provider
YelpReview
p914
(dp915
g14
S'5.0'
p916
sg16
S'2011-02-28'
p917
sba(iyelp_data_provider
YelpReview
p918
(dp919
g14
S'4.0'
p920
sg16
S'2011-03-04'
p921
sba(iyelp_data_provider
YelpReview
p922
(dp923
g14
S'5.0'
p924
sg16
S'2008-02-02'
p925
sba(iyelp_data_provider
YelpReview
p926
(dp927
g14
S'5.0'
p928
sg16
S'2009-04-22'
p929
sba(iyelp_data_provider
YelpReview
p930
(dp931
g14
S'5.0'
p932
sg16
S'2009-06-25'
p933
sba(iyelp_data_provider
YelpReview
p934
(dp935
g14
S'5.0'
p936
sg16
S'2010-02-27'
p937
sba(iyelp_data_provider
YelpReview
p938
(dp939
g14
S'3.0'
p940
sg16
S'2010-05-11'
p941
sba(iyelp_data_provider
YelpReview
p942
(dp943
g14
S'5.0'
p944
sg16
S'2010-05-31'
p945
sba(iyelp_data_provider
YelpReview
p946
(dp947
g14
S'5.0'
p948
sg16
S'2010-07-15'
p949
sba(iyelp_data_provider
YelpReview
p950
(dp951
g14
S'5.0'
p952
sg16
S'2010-07-23'
p953
sba(iyelp_data_provider
YelpReview
p954
(dp955
g14
S'4.0'
p956
sg16
S'2010-08-06'
p957
sba(iyelp_data_provider
YelpReview
p958
(dp959
g14
S'4.0'
p960
sg16
S'2010-09-06'
p961
sba(iyelp_data_provider
YelpReview
p962
(dp963
g14
S'4.0'
p964
sg16
S'2010-11-05'
p965
sba(iyelp_data_provider
YelpReview
p966
(dp967
g14
S'4.0'
p968
sg16
S'2011-07-23'
p969
sba(iyelp_data_provider
YelpReview
p970
(dp971
g14
S'5.0'
p972
sg16
S'2011-07-23'
p973
sba(iyelp_data_provider
YelpReview
p974
(dp975
g14
S'4.0'
p976
sg16
S'2011-01-07'
p977
sba(iyelp_data_provider
YelpReview
p978
(dp979
g14
S'4.0'
p980
sg16
S'2009-05-22'
p981
sba(iyelp_data_provider
YelpReview
p982
(dp983
g14
S'5.0'
p984
sg16
S'2009-06-14'
p985
sba(iyelp_data_provider
YelpReview
p986
(dp987
g14
S'5.0'
p988
sg16
S'2009-10-26'
p989
sba(iyelp_data_provider
YelpReview
p990
(dp991
g14
S'3.0'
p992
sg16
S'2010-02-11'
p993
sba(iyelp_data_provider
YelpReview
p994
(dp995
g14
S'4.0'
p996
sg16
S'2010-03-17'
p997
sba(iyelp_data_provider
YelpReview
p998
(dp999
g14
S'5.0'
p1000
sg16
S'2012-02-21'
p1001
sba(iyelp_data_provider
YelpReview
p1002
(dp1003
g14
S'5.0'
p1004
sg16
S'2012-02-19'
p1005
sba(iyelp_data_provider
YelpReview
p1006
(dp1007
g14
S'5.0'
p1008
sg16
S'2008-12-04'
p1009
sba(iyelp_data_provider
YelpReview
p1010
(dp1011
g14
S'3.0'
p1012
sg16
S'2008-12-20'
p1013
sba(iyelp_data_provider
YelpReview
p1014
(dp1015
g14
S'4.0'
p1016
sg16
S'2009-01-11'
p1017
sba(iyelp_data_provider
YelpReview
p1018
(dp1019
g14
S'4.0'
p1020
sg16
S'2010-03-10'
p1021
sba(iyelp_data_provider
YelpReview
p1022
(dp1023
g14
S'5.0'
p1024
sg16
S'2010-05-27'
p1025
sba(iyelp_data_provider
YelpReview
p1026
(dp1027
g14
S'4.0'
p1028
sg16
S'2011-04-23'
p1029
sba(iyelp_data_provider
YelpReview
p1030
(dp1031
g14
S'4.0'
p1032
sg16
S'2008-11-01'
p1033
sba(iyelp_data_provider
YelpReview
p1034
(dp1035
g14
S'4.0'
p1036
sg16
S'2008-12-10'
p1037
sba(iyelp_data_provider
YelpReview
p1038
(dp1039
g14
S'4.0'
p1040
sg16
S'2009-01-16'
p1041
sba(iyelp_data_provider
YelpReview
p1042
(dp1043
g14
S'4.0'
p1044
sg16
S'2009-08-25'
p1045
sba(iyelp_data_provider
YelpReview
p1046
(dp1047
g14
S'5.0'
p1048
sg16
S'2011-12-11'
p1049
sba(iyelp_data_provider
YelpReview
p1050
(dp1051
g14
S'4.0'
p1052
sg16
S'2011-02-26'
p1053
sba(iyelp_data_provider
YelpReview
p1054
(dp1055
g14
S'4.0'
p1056
sg16
S'2009-06-09'
p1057
sba(iyelp_data_provider
YelpReview
p1058
(dp1059
g14
S'4.0'
p1060
sg16
S'2009-08-16'
p1061
sba(iyelp_data_provider
YelpReview
p1062
(dp1063
g14
S'4.0'
p1064
sg16
S'2009-10-07'
p1065
sba(iyelp_data_provider
YelpReview
p1066
(dp1067
g14
S'5.0'
p1068
sg16
S'2010-01-08'
p1069
sba(iyelp_data_provider
YelpReview
p1070
(dp1071
g14
S'4.0'
p1072
sg16
S'2010-01-17'
p1073
sba(iyelp_data_provider
YelpReview
p1074
(dp1075
g14
S'5.0'
p1076
sg16
S'2010-05-09'
p1077
sba(iyelp_data_provider
YelpReview
p1078
(dp1079
g14
S'4.0'
p1080
sg16
S'2010-09-15'
p1081
sba(iyelp_data_provider
YelpReview
p1082
(dp1083
g14
S'4.0'
p1084
sg16
S'2010-09-30'
p1085
sba(iyelp_data_provider
YelpReview
p1086
(dp1087
g14
S'5.0'
p1088
sg16
S'2011-10-10'
p1089
sba(iyelp_data_provider
YelpReview
p1090
(dp1091
g14
S'4.0'
p1092
sg16
S'2011-01-11'
p1093
sba(iyelp_data_provider
YelpReview
p1094
(dp1095
g14
S'5.0'
p1096
sg16
S'2010-12-15'
p1097
sba(iyelp_data_provider
YelpReview
p1098
(dp1099
g14
S'5.0'
p1100
sg16
S'2008-03-16'
p1101
sba(iyelp_data_provider
YelpReview
p1102
(dp1103
g14
S'2.0'
p1104
sg16
S'2008-09-02'
p1105
sba(iyelp_data_provider
YelpReview
p1106
(dp1107
g14
S'4.0'
p1108
sg16
S'2009-10-08'
p1109
sba(iyelp_data_provider
YelpReview
p1110
(dp1111
g14
S'3.0'
p1112
sg16
S'2010-06-25'
p1113
sba(iyelp_data_provider
YelpReview
p1114
(dp1115
g14
S'4.0'
p1116
sg16
S'2011-04-23'
p1117
sba(iyelp_data_provider
YelpReview
p1118
(dp1119
g14
S'4.0'
p1120
sg16
S'2012-01-06'
p1121
sba(iyelp_data_provider
YelpReview
p1122
(dp1123
g14
S'5.0'
p1124
sg16
S'2011-05-23'
p1125
sba(iyelp_data_provider
YelpReview
p1126
(dp1127
g14
S'1.0'
p1128
sg16
S'2009-02-04'
p1129
sba(iyelp_data_provider
YelpReview
p1130
(dp1131
g14
S'4.0'
p1132
sg16
S'2009-05-21'
p1133
sba(iyelp_data_provider
YelpReview
p1134
(dp1135
g14
S'4.0'
p1136
sg16
S'2009-06-09'
p1137
sba(iyelp_data_provider
YelpReview
p1138
(dp1139
g14
S'5.0'
p1140
sg16
S'2009-09-28'
p1141
sba(iyelp_data_provider
YelpReview
p1142
(dp1143
g14
S'4.0'
p1144
sg16
S'2010-09-20'
p1145
sba(iyelp_data_provider
YelpReview
p1146
(dp1147
g14
S'5.0'
p1148
sg16
S'2010-10-29'
p1149
sba(iyelp_data_provider
YelpReview
p1150
(dp1151
g14
S'4.0'
p1152
sg16
S'2011-08-29'
p1153
sba(iyelp_data_provider
YelpReview
p1154
(dp1155
g14
S'4.0'
p1156
sg16
S'2011-12-03'
p1157
sba(iyelp_data_provider
YelpReview
p1158
(dp1159
g14
S'5.0'
p1160
sg16
S'2012-01-08'
p1161
sba(iyelp_data_provider
YelpReview
p1162
(dp1163
g14
S'5.0'
p1164
sg16
S'2011-09-22'
p1165
sba(iyelp_data_provider
YelpReview
p1166
(dp1167
g14
S'4.0'
p1168
sg16
S'2011-12-16'
p1169
sba(iyelp_data_provider
YelpReview
p1170
(dp1171
g14
S'5.0'
p1172
sg16
S'2011-12-15'
p1173
sba(iyelp_data_provider
YelpReview
p1174
(dp1175
g14
S'3.0'
p1176
sg16
S'2008-10-01'
p1177
sba(iyelp_data_provider
YelpReview
p1178
(dp1179
g14
S'5.0'
p1180
sg16
S'2008-12-28'
p1181
sba(iyelp_data_provider
YelpReview
p1182
(dp1183
g14
S'4.0'
p1184
sg16
S'2009-06-20'
p1185
sba(iyelp_data_provider
YelpReview
p1186
(dp1187
g14
S'1.0'
p1188
sg16
S'2009-09-10'
p1189
sba(iyelp_data_provider
YelpReview
p1190
(dp1191
g14
S'4.0'
p1192
sg16
S'2010-04-09'
p1193
sba(iyelp_data_provider
YelpReview
p1194
(dp1195
g14
S'2.0'
p1196
sg16
S'2010-06-17'
p1197
sba(iyelp_data_provider
YelpReview
p1198
(dp1199
g14
S'4.0'
p1200
sg16
S'2010-06-22'
p1201
sba(iyelp_data_provider
YelpReview
p1202
(dp1203
g14
S'4.0'
p1204
sg16
S'2010-10-25'
p1205
sba(iyelp_data_provider
YelpReview
p1206
(dp1207
g14
S'1.0'
p1208
sg16
S'2010-10-26'
p1209
sba(iyelp_data_provider
YelpReview
p1210
(dp1211
g14
S'5.0'
p1212
sg16
S'2011-11-05'
p1213
sba(iyelp_data_provider
YelpReview
p1214
(dp1215
g14
S'5.0'
p1216
sg16
S'2011-08-20'
p1217
sba(iyelp_data_provider
YelpReview
p1218
(dp1219
g14
S'5.0'
p1220
sg16
S'2011-11-30'
p1221
sba(iyelp_data_provider
YelpReview
p1222
(dp1223
g14
S'5.0'
p1224
sg16
S'2011-07-31'
p1225
sba(iyelp_data_provider
YelpReview
p1226
(dp1227
g14
S'4.0'
p1228
sg16
S'2011-09-26'
p1229
sba(iyelp_data_provider
YelpReview
p1230
(dp1231
g14
S'3.0'
p1232
sg16
S'2011-07-06'
p1233
sba(iyelp_data_provider
YelpReview
p1234
(dp1235
g14
S'4.0'
p1236
sg16
S'2010-08-26'
p1237
sba(iyelp_data_provider
YelpReview
p1238
(dp1239
g14
S'4.0'
p1240
sg16
S'2010-11-05'
p1241
sba(iyelp_data_provider
YelpReview
p1242
(dp1243
g14
S'4.0'
p1244
sg16
S'2011-10-09'
p1245
sba(iyelp_data_provider
YelpReview
p1246
(dp1247
g14
S'5.0'
p1248
sg16
S'2011-04-02'
p1249
sba(iyelp_data_provider
YelpReview
p1250
(dp1251
g14
S'5.0'
p1252
sg16
S'2011-03-16'
p1253
sba(iyelp_data_provider
YelpReview
p1254
(dp1255
g14
S'5.0'
p1256
sg16
S'2011-08-16'
p1257
sba(iyelp_data_provider
YelpReview
p1258
(dp1259
g14
S'4.0'
p1260
sg16
S'2011-08-09'
p1261
sba(iyelp_data_provider
YelpReview
p1262
(dp1263
g14
S'4.0'
p1264
sg16
S'2012-02-22'
p1265
sba(iyelp_data_provider
YelpReview
p1266
(dp1267
g14
S'4.0'
p1268
sg16
S'2010-10-11'
p1269
sba(iyelp_data_provider
YelpReview
p1270
(dp1271
g14
S'2.0'
p1272
sg16
S'2011-02-25'
p1273
sba(iyelp_data_provider
YelpReview
p1274
(dp1275
g14
S'4.0'
p1276
sg16
S'2010-08-28'
p1277
sba(iyelp_data_provider
YelpReview
p1278
(dp1279
g14
S'3.0'
p1280
sg16
S'2008-12-02'
p1281
sba(iyelp_data_provider
YelpReview
p1282
(dp1283
g14
S'4.0'
p1284
sg16
S'2008-09-05'
p1285
sba(iyelp_data_provider
YelpReview
p1286
(dp1287
g14
S'5.0'
p1288
sg16
S'2011-10-07'
p1289
sba(iyelp_data_provider
YelpReview
p1290
(dp1291
g14
S'3.0'
p1292
sg16
S'2008-11-20'
p1293
sba(iyelp_data_provider
YelpReview
p1294
(dp1295
g14
S'4.0'
p1296
sg16
S'2010-10-02'
p1297
sba(iyelp_data_provider
YelpReview
p1298
(dp1299
g14
S'1.0'
p1300
sg16
S'2012-03-02'
p1301
sba(iyelp_data_provider
YelpReview
p1302
(dp1303
g14
S'4.0'
p1304
sg16
S'2010-03-08'
p1305
sba(iyelp_data_provider
YelpReview
p1306
(dp1307
g14
S'5.0'
p1308
sg16
S'2011-09-24'
p1309
sba(iyelp_data_provider
YelpReview
p1310
(dp1311
g14
S'5.0'
p1312
sg16
S'2009-01-13'
p1313
sba(iyelp_data_provider
YelpReview
p1314
(dp1315
g14
S'5.0'
p1316
sg16
S'2009-01-04'
p1317
sba(iyelp_data_provider
YelpReview
p1318
(dp1319
g14
S'5.0'
p1320
sg16
S'2008-07-14'
p1321
sba(iyelp_data_provider
YelpReview
p1322
(dp1323
g14
S'5.0'
p1324
sg16
S'2011-07-02'
p1325
sba(iyelp_data_provider
YelpReview
p1326
(dp1327
g14
S'4.0'
p1328
sg16
S'2008-06-23'
p1329
sba(iyelp_data_provider
YelpReview
p1330
(dp1331
g14
S'5.0'
p1332
sg16
S'2011-04-28'
p1333
sba(iyelp_data_provider
YelpReview
p1334
(dp1335
g14
S'4.0'
p1336
sg16
S'2008-09-01'
p1337
sba(iyelp_data_provider
YelpReview
p1338
(dp1339
g14
S'5.0'
p1340
sg16
S'2010-04-06'
p1341
sba(iyelp_data_provider
YelpReview
p1342
(dp1343
g14
S'4.0'
p1344
sg16
S'2011-09-04'
p1345
sba(iyelp_data_provider
YelpReview
p1346
(dp1347
g14
S'5.0'
p1348
sg16
S'2011-10-03'
p1349
sba(iyelp_data_provider
YelpReview
p1350
(dp1351
g14
S'3.0'
p1352
sg16
S'2008-07-21'
p1353
sba(iyelp_data_provider
YelpReview
p1354
(dp1355
g14
S'5.0'
p1356
sg16
S'2009-07-10'
p1357
sba(iyelp_data_provider
YelpReview
p1358
(dp1359
g14
S'5.0'
p1360
sg16
S'2009-12-14'
p1361
sba(iyelp_data_provider
YelpReview
p1362
(dp1363
g14
S'5.0'
p1364
sg16
S'2010-01-28'
p1365
sba(iyelp_data_provider
YelpReview
p1366
(dp1367
g14
S'5.0'
p1368
sg16
S'2010-04-08'
p1369
sba(iyelp_data_provider
YelpReview
p1370
(dp1371
g14
S'5.0'
p1372
sg16
S'2011-01-30'
p1373
sba(iyelp_data_provider
YelpReview
p1374
(dp1375
g14
S'5.0'
p1376
sg16
S'2011-08-10'
p1377
sba(iyelp_data_provider
YelpReview
p1378
(dp1379
g14
S'1.0'
p1380
sg16
S'2010-03-28'
p1381
sba(iyelp_data_provider
YelpReview
p1382
(dp1383
g14
S'4.0'
p1384
sg16
S'2009-08-20'
p1385
sba(iyelp_data_provider
YelpReview
p1386
(dp1387
g14
S'4.0'
p1388
sg16
S'2008-02-23'
p1389
sba(iyelp_data_provider
YelpReview
p1390
(dp1391
g14
S'5.0'
p1392
sg16
S'2009-08-03'
p1393
sba(iyelp_data_provider
YelpReview
p1394
(dp1395
g14
S'4.0'
p1396
sg16
S'2012-03-07'
p1397
sba(iyelp_data_provider
YelpReview
p1398
(dp1399
g14
S'2.0'
p1400
sg16
S'2010-02-21'
p1401
sba(iyelp_data_provider
YelpReview
p1402
(dp1403
g14
S'4.0'
p1404
sg16
S'2009-08-24'
p1405
sba(iyelp_data_provider
YelpReview
p1406
(dp1407
g14
S'2.0'
p1408
sg16
S'2008-08-05'
p1409
sba(iyelp_data_provider
YelpReview
p1410
(dp1411
g14
S'5.0'
p1412
sg16
S'2011-05-21'
p1413
sba(iyelp_data_provider
YelpReview
p1414
(dp1415
g14
S'4.0'
p1416
sg16
S'2009-02-10'
p1417
sba(iyelp_data_provider
YelpReview
p1418
(dp1419
g14
S'5.0'
p1420
sg16
S'2009-02-22'
p1421
sba(iyelp_data_provider
YelpReview
p1422
(dp1423
g14
S'4.0'
p1424
sg16
S'2011-02-27'
p1425
sba(iyelp_data_provider
YelpReview
p1426
(dp1427
g14
S'3.0'
p1428
sg16
S'2009-05-24'
p1429
sba(iyelp_data_provider
YelpReview
p1430
(dp1431
g14
S'4.0'
p1432
sg16
S'2010-08-23'
p1433
sba(iyelp_data_provider
YelpReview
p1434
(dp1435
g14
S'5.0'
p1436
sg16
S'2009-01-08'
p1437
sba(iyelp_data_provider
YelpReview
p1438
(dp1439
g14
S'4.0'
p1440
sg16
S'2012-03-22'
p1441
sba(iyelp_data_provider
YelpReview
p1442
(dp1443
g14
S'4.0'
p1444
sg16
S'2008-08-19'
p1445
sba(iyelp_data_provider
YelpReview
p1446
(dp1447
g14
S'4.0'
p1448
sg16
S'2009-07-29'
p1449
sba(iyelp_data_provider
YelpReview
p1450
(dp1451
g14
S'4.0'
p1452
sg16
S'2010-01-23'
p1453
sba(iyelp_data_provider
YelpReview
p1454
(dp1455
g14
S'4.0'
p1456
sg16
S'2010-05-12'
p1457
sba(iyelp_data_provider
YelpReview
p1458
(dp1459
g14
S'3.0'
p1460
sg16
S'2011-01-24'
p1461
sba(iyelp_data_provider
YelpReview
p1462
(dp1463
g14
S'4.0'
p1464
sg16
S'2009-03-12'
p1465
sba(iyelp_data_provider
YelpReview
p1466
(dp1467
g14
S'2.0'
p1468
sg16
S'2011-01-14'
p1469
sba(iyelp_data_provider
YelpReview
p1470
(dp1471
g14
S'4.0'
p1472
sg16
S'2010-02-09'
p1473
sba(iyelp_data_provider
YelpReview
p1474
(dp1475
g14
S'5.0'
p1476
sg16
S'2009-05-25'
p1477
sba(iyelp_data_provider
YelpReview
p1478
(dp1479
g14
S'5.0'
p1480
sg16
S'2009-09-19'
p1481
sba(iyelp_data_provider
YelpReview
p1482
(dp1483
g14
S'4.0'
p1484
sg16
S'2009-12-01'
p1485
sba(iyelp_data_provider
YelpReview
p1486
(dp1487
g14
S'4.0'
p1488
sg16
S'2011-04-23'
p1489
sba(iyelp_data_provider
YelpReview
p1490
(dp1491
g14
S'5.0'
p1492
sg16
S'2011-04-23'
p1493
sba(iyelp_data_provider
YelpReview
p1494
(dp1495
g14
S'4.0'
p1496
sg16
S'2011-06-22'
p1497
sba(iyelp_data_provider
YelpReview
p1498
(dp1499
g14
S'4.0'
p1500
sg16
S'2010-12-29'
p1501
sba(iyelp_data_provider
YelpReview
p1502
(dp1503
g14
S'4.0'
p1504
sg16
S'2011-05-10'
p1505
sba(iyelp_data_provider
YelpReview
p1506
(dp1507
g14
S'4.0'
p1508
sg16
S'2008-12-12'
p1509
sba(iyelp_data_provider
YelpReview
p1510
(dp1511
g14
S'5.0'
p1512
sg16
S'2009-01-09'
p1513
sba(iyelp_data_provider
YelpReview
p1514
(dp1515
g14
S'5.0'
p1516
sg16
S'2009-09-20'
p1517
sba(iyelp_data_provider
YelpReview
p1518
(dp1519
g14
S'3.0'
p1520
sg16
S'2010-11-02'
p1521
sba(iyelp_data_provider
YelpReview
p1522
(dp1523
g14
S'3.0'
p1524
sg16
S'2010-11-30'
p1525
sba(iyelp_data_provider
YelpReview
p1526
(dp1527
g14
S'4.0'
p1528
sg16
S'2011-02-13'
p1529
sba(iyelp_data_provider
YelpReview
p1530
(dp1531
g14
S'4.0'
p1532
sg16
S'2010-08-09'
p1533
sba(iyelp_data_provider
YelpReview
p1534
(dp1535
g14
S'4.0'
p1536
sg16
S'2012-07-18'
p1537
sba(iyelp_data_provider
YelpReview
p1538
(dp1539
g14
S'5.0'
p1540
sg16
S'2008-10-03'
p1541
sba(iyelp_data_provider
YelpReview
p1542
(dp1543
g14
S'3.0'
p1544
sg16
S'2009-08-01'
p1545
sba(iyelp_data_provider
YelpReview
p1546
(dp1547
g14
S'4.0'
p1548
sg16
S'2010-04-04'
p1549
sba(iyelp_data_provider
YelpReview
p1550
(dp1551
g14
S'3.0'
p1552
sg16
S'2010-05-19'
p1553
sba(iyelp_data_provider
YelpReview
p1554
(dp1555
g14
S'4.0'
p1556
sg16
S'2011-04-18'
p1557
sba(iyelp_data_provider
YelpReview
p1558
(dp1559
g14
S'5.0'
p1560
sg16
S'2009-09-30'
p1561
sba(iyelp_data_provider
YelpReview
p1562
(dp1563
g14
S'1.0'
p1564
sg16
S'2010-08-15'
p1565
sba(iyelp_data_provider
YelpReview
p1566
(dp1567
g14
S'5.0'
p1568
sg16
S'2010-08-26'
p1569
sba(iyelp_data_provider
YelpReview
p1570
(dp1571
g14
S'5.0'
p1572
sg16
S'2010-09-19'
p1573
sba(iyelp_data_provider
YelpReview
p1574
(dp1575
g14
S'5.0'
p1576
sg16
S'2011-10-16'
p1577
sba(iyelp_data_provider
YelpReview
p1578
(dp1579
g14
S'5.0'
p1580
sg16
S'2011-02-28'
p1581
sba(iyelp_data_provider
YelpReview
p1582
(dp1583
g14
S'4.0'
p1584
sg16
S'2011-01-25'
p1585
sba(iyelp_data_provider
YelpReview
p1586
(dp1587
g14
S'5.0'
p1588
sg16
S'2008-11-04'
p1589
sba(iyelp_data_provider
YelpReview
p1590
(dp1591
g14
S'4.0'
p1592
sg16
S'2009-01-03'
p1593
sba(iyelp_data_provider
YelpReview
p1594
(dp1595
g14
S'5.0'
p1596
sg16
S'2009-03-09'
p1597
sba(iyelp_data_provider
YelpReview
p1598
(dp1599
g14
S'5.0'
p1600
sg16
S'2010-02-25'
p1601
sba(iyelp_data_provider
YelpReview
p1602
(dp1603
g14
S'4.0'
p1604
sg16
S'2010-09-07'
p1605
sba(iyelp_data_provider
YelpReview
p1606
(dp1607
g14
S'3.0'
p1608
sg16
S'2010-09-22'
p1609
sba(iyelp_data_provider
YelpReview
p1610
(dp1611
g14
S'5.0'
p1612
sg16
S'2011-11-05'
p1613
sba(iyelp_data_provider
YelpReview
p1614
(dp1615
g14
S'4.0'
p1616
sg16
S'2011-03-22'
p1617
sba(iyelp_data_provider
YelpReview
p1618
(dp1619
g14
S'4.0'
p1620
sg16
S'2008-11-25'
p1621
sba(iyelp_data_provider
YelpReview
p1622
(dp1623
g14
S'4.0'
p1624
sg16
S'2008-12-19'
p1625
sba(iyelp_data_provider
YelpReview
p1626
(dp1627
g14
S'5.0'
p1628
sg16
S'2009-11-02'
p1629
sba(iyelp_data_provider
YelpReview
p1630
(dp1631
g14
S'3.0'
p1632
sg16
S'2010-03-13'
p1633
sba(iyelp_data_provider
YelpReview
p1634
(dp1635
g14
S'4.0'
p1636
sg16
S'2010-08-30'
p1637
sba(iyelp_data_provider
YelpReview
p1638
(dp1639
g14
S'4.0'
p1640
sg16
S'2011-02-05'
p1641
sba(iyelp_data_provider
YelpReview
p1642
(dp1643
g14
S'5.0'
p1644
sg16
S'2011-08-06'
p1645
sba(iyelp_data_provider
YelpReview
p1646
(dp1647
g14
S'5.0'
p1648
sg16
S'2010-12-19'
p1649
sba(iyelp_data_provider
YelpReview
p1650
(dp1651
g14
S'5.0'
p1652
sg16
S'2009-05-25'
p1653
sba(iyelp_data_provider
YelpReview
p1654
(dp1655
g14
S'5.0'
p1656
sg16
S'2010-02-06'
p1657
sba(iyelp_data_provider
YelpReview
p1658
(dp1659
g14
S'5.0'
p1660
sg16
S'2010-04-07'
p1661
sba(iyelp_data_provider
YelpReview
p1662
(dp1663
g14
S'5.0'
p1664
sg16
S'2010-11-16'
p1665
sba(iyelp_data_provider
YelpReview
p1666
(dp1667
g14
S'4.0'
p1668
sg16
S'2011-01-07'
p1669
sba(iyelp_data_provider
YelpReview
p1670
(dp1671
g14
S'3.0'
p1672
sg16
S'2009-02-14'
p1673
sba(iyelp_data_provider
YelpReview
p1674
(dp1675
g14
S'4.0'
p1676
sg16
S'2010-03-07'
p1677
sba(iyelp_data_provider
YelpReview
p1678
(dp1679
g14
S'4.0'
p1680
sg16
S'2010-07-28'
p1681
sba(iyelp_data_provider
YelpReview
p1682
(dp1683
g14
S'3.0'
p1684
sg16
S'2011-11-21'
p1685
sba(iyelp_data_provider
YelpReview
p1686
(dp1687
g14
S'4.0'
p1688
sg16
S'2009-02-23'
p1689
sba(iyelp_data_provider
YelpReview
p1690
(dp1691
g14
S'4.0'
p1692
sg16
S'2009-05-12'
p1693
sba(iyelp_data_provider
YelpReview
p1694
(dp1695
g14
S'4.0'
p1696
sg16
S'2010-01-05'
p1697
sba(iyelp_data_provider
YelpReview
p1698
(dp1699
g14
S'4.0'
p1700
sg16
S'2010-03-05'
p1701
sba(iyelp_data_provider
YelpReview
p1702
(dp1703
g14
S'5.0'
p1704
sg16
S'2010-03-24'
p1705
sba(iyelp_data_provider
YelpReview
p1706
(dp1707
g14
S'4.0'
p1708
sg16
S'2010-08-28'
p1709
sba(iyelp_data_provider
YelpReview
p1710
(dp1711
g14
S'3.0'
p1712
sg16
S'2010-11-09'
p1713
sba(iyelp_data_provider
YelpReview
p1714
(dp1715
g14
S'4.0'
p1716
sg16
S'2011-04-11'
p1717
sba(iyelp_data_provider
YelpReview
p1718
(dp1719
g14
S'5.0'
p1720
sg16
S'2012-05-25'
p1721
sba(iyelp_data_provider
YelpReview
p1722
(dp1723
g14
S'5.0'
p1724
sg16
S'2009-05-20'
p1725
sba(iyelp_data_provider
YelpReview
p1726
(dp1727
g14
S'5.0'
p1728
sg16
S'2008-09-08'
p1729
sba(iyelp_data_provider
YelpReview
p1730
(dp1731
g14
S'5.0'
p1732
sg16
S'2009-09-18'
p1733
sba(iyelp_data_provider
YelpReview
p1734
(dp1735
g14
S'5.0'
p1736
sg16
S'2011-04-10'
p1737
sba(iyelp_data_provider
YelpReview
p1738
(dp1739
g14
S'5.0'
p1740
sg16
S'2011-08-25'
p1741
sba(iyelp_data_provider
YelpReview
p1742
(dp1743
g14
S'3.0'
p1744
sg16
S'2011-08-18'
p1745
sba(iyelp_data_provider
YelpReview
p1746
(dp1747
g14
S'4.0'
p1748
sg16
S'2009-03-02'
p1749
sba(iyelp_data_provider
YelpReview
p1750
(dp1751
g14
S'5.0'
p1752
sg16
S'2008-12-04'
p1753
sba(iyelp_data_provider
YelpReview
p1754
(dp1755
g14
S'2.0'
p1756
sg16
S'2008-11-30'
p1757
sba(iyelp_data_provider
YelpReview
p1758
(dp1759
g14
S'4.0'
p1760
sg16
S'2008-09-08'
p1761
sba(iyelp_data_provider
YelpReview
p1762
(dp1763
g14
S'5.0'
p1764
sg16
S'2010-07-04'
p1765
sba(iyelp_data_provider
YelpReview
p1766
(dp1767
g14
S'5.0'
p1768
sg16
S'2011-05-14'
p1769
sba(iyelp_data_provider
YelpReview
p1770
(dp1771
g14
S'4.0'
p1772
sg16
S'2011-03-28'
p1773
sba(iyelp_data_provider
YelpReview
p1774
(dp1775
g14
S'4.0'
p1776
sg16
S'2011-05-28'
p1777
sba(iyelp_data_provider
YelpReview
p1778
(dp1779
g14
S'4.0'
p1780
sg16
S'2011-05-20'
p1781
sba(iyelp_data_provider
YelpReview
p1782
(dp1783
g14
S'4.0'
p1784
sg16
S'2012-02-09'
p1785
sba(iyelp_data_provider
YelpReview
p1786
(dp1787
g14
S'3.0'
p1788
sg16
S'2011-01-06'
p1789
sba(iyelp_data_provider
YelpReview
p1790
(dp1791
g14
S'1.0'
p1792
sg16
S'2011-01-30'
p1793
sba(iyelp_data_provider
YelpReview
p1794
(dp1795
g14
S'5.0'
p1796
sg16
S'2011-03-21'
p1797
sba(iyelp_data_provider
YelpReview
p1798
(dp1799
g14
S'5.0'
p1800
sg16
S'2009-09-20'
p1801
sba(iyelp_data_provider
YelpReview
p1802
(dp1803
g14
S'5.0'
p1804
sg16
S'2009-07-07'
p1805
sba(iyelp_data_provider
YelpReview
p1806
(dp1807
g14
S'5.0'
p1808
sg16
S'2010-05-06'
p1809
sba(iyelp_data_provider
YelpReview
p1810
(dp1811
g14
S'5.0'
p1812
sg16
S'2010-05-24'
p1813
sba(iyelp_data_provider
YelpReview
p1814
(dp1815
g14
S'5.0'
p1816
sg16
S'2010-09-21'
p1817
sba(iyelp_data_provider
YelpReview
p1818
(dp1819
g14
S'4.0'
p1820
sg16
S'2008-12-21'
p1821
sba(iyelp_data_provider
YelpReview
p1822
(dp1823
g14
S'5.0'
p1824
sg16
S'2009-06-09'
p1825
sba(iyelp_data_provider
YelpReview
p1826
(dp1827
g14
S'5.0'
p1828
sg16
S'2010-04-07'
p1829
sba(iyelp_data_provider
YelpReview
p1830
(dp1831
g14
S'4.0'
p1832
sg16
S'2009-03-10'
p1833
sba(iyelp_data_provider
YelpReview
p1834
(dp1835
g14
S'5.0'
p1836
sg16
S'2010-04-25'
p1837
sba(iyelp_data_provider
YelpReview
p1838
(dp1839
g14
S'5.0'
p1840
sg16
S'2011-09-16'
p1841
sba(iyelp_data_provider
YelpReview
p1842
(dp1843
g14
S'3.0'
p1844
sg16
S'2009-02-22'
p1845
sba(iyelp_data_provider
YelpReview
p1846
(dp1847
g14
S'4.0'
p1848
sg16
S'2008-02-22'
p1849
sbasS'has_extra_content'
p1850
I01
sS'latitude'
p1851
F40.7648963
sS'id'
p1852
VJL_p-OHtSEYVfoeLQQgqDA
p1853
sba.